ccopy_reg
_reconstructor
p0
(car_pose.msg._ARMarkers
ARMarkers
p1
c__builtin__
object
p2
Ntp3
Rp4
(lp5
g0
(cstd_msgs.msg._Header
Header
p6
g2
Ntp7
Rp8
(lp9
I0
ag0
(cgenpy.rostime
Time
p10
g2
Ntp11
Rp12
(lp13
I0
aI0
abaS'\\world'
p14
aba(lp15
g0
(car_pose.msg._ARMarker
ARMarker
p16
g2
Ntp17
Rp18
(lp19
g0
(g6
g2
Ntp20
Rp21
(lp22
I0
ag0
(g10
g2
Ntp23
Rp24
(lp25
I0
aI0
abaS'/world'
p26
abaI0
ag0
(cgeometry_msgs.msg._PoseWithCovariance
PoseWithCovariance
p27
g2
Ntp28
Rp29
(lp30
g0
(cgeometry_msgs.msg._Pose
Pose
p31
g2
Ntp32
Rp33
(lp34
g0
(cgeometry_msgs.msg._Point
Point
p35
g2
Ntp36
Rp37
(lp38
F3.25
aF1.05
aF1.65
abag0
(cgeometry_msgs.msg._Quaternion
Quaternion
p39
g2
Ntp40
Rp41
(lp42
F0.5
aF-0.5
aF-0.5
aF0.5
ababa(lp43
F0.0
aF0.0
aF0.0
aF0.0
aF0.0
aF0.0
aF0.0
aF0.0
aF0.0
aF0.0
aF0.0
aF0.0
aF0.0
aF0.0
aF0.0
aF0.0
aF0.0
aF0.0
aF0.0
aF0.0
aF0.0
aF0.0
aF0.0
aF0.0
aF0.0
aF0.0
aF0.0
aF0.0
aF0.0
aF0.0
aF0.0
aF0.0
aF0.0
aF0.0
aF0.0
aF0.0
aabaI0
abag0
(g16
g2
Ntp44
Rp45
(lp46
g0
(g6
g2
Ntp47
Rp48
(lp49
I0
ag0
(g10
g2
Ntp50
Rp51
(lp52
I0
aI0
abag26
abaI1
ag0
(g27
g2
Ntp53
Rp54
(lp55
g0
(g31
g2
Ntp56
Rp57
(lp58
g0
(g35
g2
Ntp59
Rp60
(lp61
F3.25
aF-1.85
aF1.51
abag0
(g39
g2
Ntp62
Rp63
(lp64
F0.5
aF-0.5
aF-0.5
aF0.5
ababa(lp65
F0.0
aF0.0
aF0.0
aF0.0
aF0.0
aF0.0
aF0.0
aF0.0
aF0.0
aF0.0
aF0.0
aF0.0
aF0.0
aF0.0
aF0.0
aF0.0
aF0.0
aF0.0
aF0.0
aF0.0
aF0.0
aF0.0
aF0.0
aF0.0
aF0.0
aF0.0
aF0.0
aF0.0
aF0.0
aF0.0
aF0.0
aF0.0
aF0.0
aF0.0
aF0.0
aF0.0
aabaI0
abag0
(g16
g2
Ntp66
Rp67
(lp68
g0
(g6
g2
Ntp69
Rp70
(lp71
I0
ag0
(g10
g2
Ntp72
Rp73
(lp74
I0
aI0
abag26
abaI2
ag0
(g27
g2
Ntp75
Rp76
(lp77
g0
(g31
g2
Ntp78
Rp79
(lp80
g0
(g35
g2
Ntp81
Rp82
(lp83
F0.18
aF-2.8
aF1.58
abag0
(g39
g2
Ntp84
Rp85
(lp86
F0.707
aF0.0
aF0.0
aF-0.707
ababa(lp87
F0.0
aF0.0
aF0.0
aF0.0
aF0.0
aF0.0
aF0.0
aF0.0
aF0.0
aF0.0
aF0.0
aF0.0
aF0.0
aF0.0
aF0.0
aF0.0
aF0.0
aF0.0
aF0.0
aF0.0
aF0.0
aF0.0
aF0.0
aF0.0
aF0.0
aF0.0
aF0.0
aF0.0
aF0.0
aF0.0
aF0.0
aF0.0
aF0.0
aF0.0
aF0.0
aF0.0
aabaI0
abag0
(g16
g2
Ntp88
Rp89
(lp90
g0
(g6
g2
Ntp91
Rp92
(lp93
I0
ag0
(g10
g2
Ntp94
Rp95
(lp96
I0
aI0
abag26
abaI3
ag0
(g27
g2
Ntp97
Rp98
(lp99
g0
(g31
g2
Ntp100
Rp101
(lp102
g0
(g35
g2
Ntp103
Rp104
(lp105
F-3.05
aF-0.83
aF1.43
abag0
(g39
g2
Ntp106
Rp107
(lp108
F0.5
aF0.5
aF0.5
aF0.5
ababa(lp109
F0.0
aF0.0
aF0.0
aF0.0
aF0.0
aF0.0
aF0.0
aF0.0
aF0.0
aF0.0
aF0.0
aF0.0
aF0.0
aF0.0
aF0.0
aF0.0
aF0.0
aF0.0
aF0.0
aF0.0
aF0.0
aF0.0
aF0.0
aF0.0
aF0.0
aF0.0
aF0.0
aF0.0
aF0.0
aF0.0
aF0.0
aF0.0
aF0.0
aF0.0
aF0.0
aF0.0
aabaI0
abag0
(g16
g2
Ntp110
Rp111
(lp112
g0
(g6
g2
Ntp113
Rp114
(lp115
I0
ag0
(g10
g2
Ntp116
Rp117
(lp118
I0
aI0
abag26
abaI4
ag0
(g27
g2
Ntp119
Rp120
(lp121
g0
(g31
g2
Ntp122
Rp123
(lp124
g0
(g35
g2
Ntp125
Rp126
(lp127
F-3.05
aF1.54
aF1.57
abag0
(g39
g2
Ntp128
Rp129
(lp130
F0.5
aF0.5
aF0.5
aF0.5
ababa(lp131
F0.0
aF0.0
aF0.0
aF0.0
aF0.0
aF0.0
aF0.0
aF0.0
aF0.0
aF0.0
aF0.0
aF0.0
aF0.0
aF0.0
aF0.0
aF0.0
aF0.0
aF0.0
aF0.0
aF0.0
aF0.0
aF0.0
aF0.0
aF0.0
aF0.0
aF0.0
aF0.0
aF0.0
aF0.0
aF0.0
aF0.0
aF0.0
aF0.0
aF0.0
aF0.0
aF0.0
aabaI0
abag0
(g16
g2
Ntp132
Rp133
(lp134
g0
(g6
g2
Ntp135
Rp136
(lp137
I0
ag0
(g10
g2
Ntp138
Rp139
(lp140
I0
aI0
abag26
abaI5
ag0
(g27
g2
Ntp141
Rp142
(lp143
g0
(g31
g2
Ntp144
Rp145
(lp146
g0
(g35
g2
Ntp147
Rp148
(lp149
F-0.45
aF2.45
aF1.28
abag0
(g39
g2
Ntp150
Rp151
(lp152
F0.707
aF0.0
aF0.0
aF0.707
ababa(lp153
F0.0
aF0.0
aF0.0
aF0.0
aF0.0
aF0.0
aF0.0
aF0.0
aF0.0
aF0.0
aF0.0
aF0.0
aF0.0
aF0.0
aF0.0
aF0.0
aF0.0
aF0.0
aF0.0
aF0.0
aF0.0
aF0.0
aF0.0
aF0.0
aF0.0
aF0.0
aF0.0
aF0.0
aF0.0
aF0.0
aF0.0
aF0.0
aF0.0
aF0.0
aF0.0
aF0.0
aabaI0
abag0
(g16
g2
Ntp154
Rp155
(lp156
g0
(g6
g2
Ntp157
Rp158
(lp159
I0
ag0
(g10
g2
Ntp160
Rp161
(lp162
I0
aI0
abag26
abaI6
ag0
(g27
g2
Ntp163
Rp164
(lp165
g0
(g31
g2
Ntp166
Rp167
(lp168
g0
(g35
g2
Ntp169
Rp170
(lp171
F2.2
aF2.45
aF1.46
abag0
(g39
g2
Ntp172
Rp173
(lp174
F0.707
aF0.0
aF0.0
aF0.707
ababa(lp175
F0.0
aF0.0
aF0.0
aF0.0
aF0.0
aF0.0
aF0.0
aF0.0
aF0.0
aF0.0
aF0.0
aF0.0
aF0.0
aF0.0
aF0.0
aF0.0
aF0.0
aF0.0
aF0.0
aF0.0
aF0.0
aF0.0
aF0.0
aF0.0
aF0.0
aF0.0
aF0.0
aF0.0
aF0.0
aF0.0
aF0.0
aF0.0
aF0.0
aF0.0
aF0.0
aF0.0
aabaI0
abaab.I0
.