ccopy_reg
_reconstructor
p0
(car_pose.msg._ARMarkers
ARMarkers
p1
c__builtin__
object
p2
Ntp3
Rp4
(lp5
g0
(cstd_msgs.msg._Header
Header
p6
g2
Ntp7
Rp8
(lp9
I0
ag0
(cgenpy.rostime
Time
p10
g2
Ntp11
Rp12
(lp13
I0
aI0
abaS'\\world'
p14
aba(lp15
g0
(car_pose.msg._ARMarker
ARMarker
p16
g2
Ntp17
Rp18
(lp19
g0
(g6
g2
Ntp20
Rp21
(lp22
I0
ag0
(g10
g2
Ntp23
Rp24
(lp25
I0
aI0
abaS'/world'
p26
abaI0
ag0
(cgeometry_msgs.msg._PoseWithCovariance
PoseWithCovariance
p27
g2
Ntp28
Rp29
(lp30
g0
(cgeometry_msgs.msg._Pose
Pose
p31
g2
Ntp32
Rp33
(lp34
g0
(cgeometry_msgs.msg._Point
Point
p35
g2
Ntp36
Rp37
(lp38
F2.0
aF7.0
aF0.7
abag0
(cgeometry_msgs.msg._Quaternion
Quaternion
p39
g2
Ntp40
Rp41
(lp42
F0.0
aF2.0
aF0.0
aF2.0
ababa(lp43
F0.0
aF0.0
aF0.0
aF0.0
aF0.0
aF0.0
aF0.0
aF0.0
aF0.0
aF0.0
aF0.0
aF0.0
aF0.0
aF0.0
aF0.0
aF0.0
aF0.0
aF0.0
aF0.0
aF0.0
aF0.0
aF0.0
aF0.0
aF0.0
aF0.0
aF0.0
aF0.0
aF0.0
aF0.0
aF0.0
aF0.0
aF0.0
aF0.0
aF0.0
aF0.0
aF0.0
aabaI0
abag0
(g16
g2
Ntp44
Rp45
(lp46
g0
(g6
g2
Ntp47
Rp48
(lp49
I0
ag0
(g10
g2
Ntp50
Rp51
(lp52
I0
aI0
abag26
abaI1
ag0
(g27
g2
Ntp53
Rp54
(lp55
g0
(g31
g2
Ntp56
Rp57
(lp58
g0
(g35
g2
Ntp59
Rp60
(lp61
F-1.0
aF11.0
aF1.0
abag0
(g39
g2
Ntp62
Rp63
(lp64
F2.0
aF0.0
aF0.0
aF2.0
ababa(lp65
F0.0
aF0.0
aF0.0
aF0.0
aF0.0
aF0.0
aF0.0
aF0.0
aF0.0
aF0.0
aF0.0
aF0.0
aF0.0
aF0.0
aF0.0
aF0.0
aF0.0
aF0.0
aF0.0
aF0.0
aF0.0
aF0.0
aF0.0
aF0.0
aF0.0
aF0.0
aF0.0
aF0.0
aF0.0
aF0.0
aF0.0
aF0.0
aF0.0
aF0.0
aF0.0
aF0.0
aabaI0
abag0
(g16
g2
Ntp66
Rp67
(lp68
g0
(g6
g2
Ntp69
Rp70
(lp71
I0
ag0
(g10
g2
Ntp72
Rp73
(lp74
I0
aI0
abag26
abaI2
ag0
(g27
g2
Ntp75
Rp76
(lp77
g0
(g31
g2
Ntp78
Rp79
(lp80
g0
(g35
g2
Ntp81
Rp82
(lp83
F3.0
aF3.0
aF1.5
abag0
(g39
g2
Ntp84
Rp85
(lp86
F0.0
aF2.0
aF0.0
aF2.0
ababa(lp87
F0.0
aF0.0
aF0.0
aF0.0
aF0.0
aF0.0
aF0.0
aF0.0
aF0.0
aF0.0
aF0.0
aF0.0
aF0.0
aF0.0
aF0.0
aF0.0
aF0.0
aF0.0
aF0.0
aF0.0
aF0.0
aF0.0
aF0.0
aF0.0
aF0.0
aF0.0
aF0.0
aF0.0
aF0.0
aF0.0
aF0.0
aF0.0
aF0.0
aF0.0
aF0.0
aF0.0
aabaI0
abaab.F3.141
.