ccopy_reg
_reconstructor
p0
(car_pose.msg._ARMarkers
ARMarkers
p1
c__builtin__
object
p2
Ntp3
Rp4
(lp5
g0
(cstd_msgs.msg._Header
Header
p6
g2
Ntp7
Rp8
(lp9
I0
ag0
(cgenpy.rostime
Time
p10
g2
Ntp11
Rp12
(lp13
I0
aI0
abaS'\\world'
p14
aba(lp15
g0
(car_pose.msg._ARMarker
ARMarker
p16
g2
Ntp17
Rp18
(lp19
g0
(g6
g2
Ntp20
Rp21
(lp22
I0
ag0
(g10
g2
Ntp23
Rp24
(lp25
I0
aI0
abaS'/world'
p26
abaI0
ag0
(cgeometry_msgs.msg._PoseWithCovariance
PoseWithCovariance
p27
g2
Ntp28
Rp29
(lp30
g0
(cgeometry_msgs.msg._Pose
Pose
p31
g2
Ntp32
Rp33
(lp34
g0
(cgeometry_msgs.msg._Point
Point
p35
g2
Ntp36
Rp37
(lp38
F0.0
aF3.0
aF1.0
abag0
(cgeometry_msgs.msg._Quaternion
Quaternion
p39
g2
Ntp40
Rp41
(lp42
F0.0
aF0.0
aF0.0
aF0.0
ababa(lp43
F0.0
aF0.0
aF0.0
aF0.0
aF0.0
aF0.0
aF0.0
aF0.0
aF0.0
aF0.0
aF0.0
aF0.0
aF0.0
aF0.0
aF0.0
aF0.0
aF0.0
aF0.0
aF0.0
aF0.0
aF0.0
aF0.0
aF0.0
aF0.0
aF0.0
aF0.0
aF0.0
aF0.0
aF0.0
aF0.0
aF0.0
aF0.0
aF0.0
aF0.0
aF0.0
aF0.0
aabaI0
abaab.F3.141
.