(lp0
(dp1
S'ps'
p2
(lp3
F4.823999881744385
aF4.806000232696533
aF4.814000129699707
aF4.813000202178955
aF4.8429999351501465
aF4.861000061035156
aF4.866000175476074
aF4.88100004196167
aF4.881999969482422
aF4.883999824523926
aF4.867000102996826
aF4.843999862670898
aF4.824999809265137
aF4.816999912261963
aF4.800000190734863
aF4.795000076293945
aF4.794000148773193
aF4.796999931335449
aF4.815000057220459
aF4.828000068664551
aF4.822000026702881
aF4.820000171661377
aF4.822999954223633
aF4.817999839782715
aF4.788000106811523
aF4.791999816894531
aF4.791999816894531
aF4.7729997634887695
aF4.756999969482422
aF4.745999813079834
aF4.749000072479248
aF4.35099983215332
aF3.6530001163482666
aF3.4100000858306885
aF3.183000087738037
aF2.9509999752044678
aF2.734999895095825
aF2.5169999599456787
aF2.309999942779541
aF2.13700008392334
aF1.9850000143051147
aF1.8480000495910645
aF1.7139999866485596
aF1.6139999628067017
aF1.5099999904632568
aF1.4199999570846558
aF1.3359999656677246
aF1.253000020980835
aF1.1859999895095825
aF1.1089999675750732
aF1.0440000295639038
aF1.0140000581741333
aF0.9819999933242798
aF0.9359999895095825
aF0.9160000085830688
aF0.8889999985694885
aF0.875
aF0.859000027179718
aF0.8640000224113464
aF0.8119999766349792
aF0.8019999861717224
aF0.7730000019073486
aF0.7639999985694885
aF0.7360000014305115
aF0.7269999980926514
aF0.6809999942779541
aF0.6489999890327454
aF0.6010000109672546
aF0.5789999961853027
aF0.5649999976158142
aF0.5440000295639038
aF0.5289999842643738
aF0.5080000162124634
aF0.4830000102519989
aF0.47099998593330383
aF0.46399998664855957
aF0.4779999852180481
aF0.460999995470047
aF0.42399999499320984
aF0.4320000112056732
aF0.4480000138282776
aF0.453000009059906
aF0.4560000002384186
aF0.46399998664855957
aF0.4690000116825104
aF0.4790000021457672
aF0.4869999885559082
aF0.47099998593330383
aF0.45500001311302185
aF0.44999998807907104
aF0.4699999988079071
aF0.4490000009536743
aF0.45100000500679016
aF0.4269999861717224
aF0.4090000092983246
aF0.3970000147819519
aF0.3720000088214874
aF0.3529999852180481
aF0.26499998569488525
aF0.17900000512599945
aF0.07400000095367432
aF-0.028999999165534973
aF-0.10899999737739563
aF-0.16599999368190765
aF-0.21799999475479126
aF-0.2939999997615814
aF-0.39500001072883606
aF-0.4779999852180481
aF-0.5419999957084656
aF-0.6299999952316284
aF-0.7039999961853027
aF-0.7950000166893005
aF-0.8640000224113464
aF-0.8970000147819519
aF-0.9269999861717224
aF-0.9319999814033508
aF-0.9779999852180481
aF-1.0160000324249268
aF-1.0119999647140503
aF-1.0199999809265137
aF-1.0420000553131104
aF-1.0540000200271606
aF-1.0549999475479126
aF-1.0360000133514404
aF-0.9940000176429749
aF-0.9539999961853027
aF-0.906000018119812
aF-0.8690000176429749
aF-0.8069999814033508
aF-0.765999972820282
aF-0.718999981880188
aF-0.7300000190734863
aF-0.6930000185966492
aF-0.6679999828338623
aF-0.6520000100135803
aF-0.6309999823570251
aF-0.6119999885559082
aF-0.5889999866485596
aF-0.5619999766349792
aF-0.5669999718666077
aF-0.5440000295639038
aF-0.5249999761581421
aF-0.49399998784065247
aF-0.4819999933242798
aF-0.421999990940094
aF-0.3580000102519989
aF-0.35100001096725464
aF-0.35100001096725464
aF-0.382999986410141
aF-0.375
aF-0.3479999899864197
aF-0.33000001311302185
aF-0.2879999876022339
aF-0.2280000001192093
aF-0.22300000488758087
aF-0.16099999845027924
aF-0.10499999672174454
aF-0.11699999868869781
aF-0.1289999932050705
aF-0.11699999868869781
aF-0.15299999713897705
aF-0.328000009059906
aF-0.35899999737739563
aF-0.37599998712539673
aF-0.32100000977516174
aF-0.23800000548362732
aF-0.11800000071525574
aF-0.020999999716877937
aF0.04600000008940697
aF0.07100000232458115
aF0.07699999958276749
aF-0.03799999877810478
aF-0.16500000655651093
aF-0.2930000126361847
aF-0.4519999921321869
aF-0.5680000185966492
aF-0.7580000162124634
aF-0.9269999861717224
aF-1.2079999446868896
aF-1.2960000038146973
aF-1.38100004196167
aF-1.4420000314712524
aF-1.4910000562667847
aF-1.5470000505447388
aF-1.5369999408721924
aF-1.5410000085830688
aF-1.5729999542236328
aF-1.5829999446868896
aF-1.5839999914169312
aF-1.5889999866485596
aF-1.6139999628067017
aF-1.562999963760376
aF-1.5149999856948853
asS'tm'
p4
(lp5
F6.045852184295654
aF6.154051065444946
aF6.182458162307739
aF6.260814189910889
aF6.354469060897827
aF6.417163133621216
aF6.570862054824829
aF6.594180107116699
aF6.65463399887085
aF6.734060049057007
aF6.814152002334595
aF6.841992139816284
aF6.90308403968811
aF6.9951560497283936
aF7.034083127975464
aF7.177045106887817
aF7.234064102172852
aF7.257281064987183
aF7.357280969619751
aF7.4456281661987305
aF7.517229080200195
aF7.544485092163086
aF7.60379695892334
aF7.634057998657227
aF7.76106595993042
aF7.8140950202941895
aF7.8658061027526855
aF7.876919984817505
aF7.940636157989502
aF8.06904911994934
aF8.174846172332764
aF8.322224140167236
aF8.534240007400513
aF8.581926107406616
aF8.661347150802612
aF8.697021007537842
aF8.734155178070068
aF8.846204996109009
aF8.854227066040039
aF8.974524021148682
aF8.99457597732544
aF9.054286003112793
aF9.121114015579224
aF9.178218126296997
aF9.254439115524292
aF9.300260066986084
aF9.421748161315918
aF9.4743971824646
aF9.530619144439697
aF9.634598016738892
aF9.684614181518555
aF9.74259901046753
aF9.777124166488647
aF9.834498167037964
aF9.894361972808838
aF10.002866983413696
aF10.036890029907227
aF10.117868185043335
aF10.217960119247437
aF10.234188079833984
aF10.322815179824829
aF10.366827011108398
aF10.41453504562378
aF10.514379978179932
aF10.601914167404175
aF10.614089012145996
aF10.682201147079468
aF10.738578081130981
aF10.814839124679565
aF10.897906064987183
aF10.934837102890015
aF10.994456052780151
aF11.124909162521362
aF11.220031023025513
aF11.300793170928955
aF11.35447096824646
aF11.388015985488892
aF11.45490312576294
aF11.514379024505615
aF11.614580154418945
aF11.659358024597168
aF11.71447205543518
aF11.79472804069519
aF11.861001968383789
aF11.955178022384644
aF11.97409701347351
aF12.054403066635132
aF12.138123989105225
aF12.174833059310913
aF12.257061958312988
aF12.294447183609009
aF12.36568808555603
aF12.43439507484436
aF12.49428415298462
aF12.555260181427002
aF12.65400505065918
aF12.694498062133789
aF12.801627159118652
aF12.83431100845337
aF12.886590957641602
aF12.968247175216675
aF13.034764051437378
aF13.082237958908081
aF13.154428005218506
aF13.217761993408203
aF13.274441003799438
aF13.338186025619507
aF13.418169975280762
aF13.474579095840454
aF13.59441614151001
aF13.634464979171753
aF13.7294340133667
aF13.737068176269531
aF13.819581985473633
aF13.874582052230835
aF14.018067121505737
aF14.034371137619019
aF14.142750978469849
aF14.198822021484375
aF14.278795957565308
aF14.430804014205933
aF14.46055006980896
aF14.518242120742798
aF14.574635028839111
aF14.69469404220581
aF14.77409315109253
aF14.799443006515503
aF14.857758045196533
aF14.98037314414978
aF15.054394006729126
aF15.118311166763306
aF15.199449062347412
aF15.234321117401123
aF15.294548034667969
aF15.357928991317749
aF15.41431999206543
aF15.494513034820557
aF15.560062170028687
aF15.617741107940674
aF15.685585021972656
aF15.761101007461548
aF15.81445598602295
aF15.897672176361084
aF15.954432964324951
aF16.020913124084473
aF16.074126958847046
aF16.18131113052368
aF16.2600200176239
aF16.337825059890747
aF16.35437512397766
aF16.434734106063843
aF16.461798191070557
aF16.53510808944702
aF16.601158142089844
aF16.74061608314514
aF16.875241994857788
aF16.93513512611389
aF17.00075912475586
aF17.094985961914062
aF17.160799980163574
aF17.354626178741455
aF17.37437415122986
aF17.39697003364563
aF17.43932318687439
aF17.494461059570312
aF17.57868719100952
aF17.63820505142212
aF17.694344997406006
aF17.761532068252563
aF17.83839702606201
aF17.91431212425232
aF17.954508066177368
aF18.02024006843567
aF18.09450602531433
aF18.154198169708252
aF18.21439504623413
aF18.274286031723022
aF18.394355058670044
aF18.53986406326294
aF18.57408618927002
aF18.618113040924072
aF18.6964750289917
aF18.880048036575317
aF18.9029381275177
aF18.988839149475098
aF19.018144130706787
aF19.054126024246216
aF19.138056993484497
aF19.194154977798462
aF19.254292964935303
aF19.34005117416382
aF19.394227981567383
aF19.45469617843628
asS'th'
p6
(lp7
F0.2809999883174896
aF0.31299999356269836
aF0.22100000083446503
aF0.16200000047683716
aF-0.04500000178813934
aF-0.2630000114440918
aF-0.4320000112056732
aF-0.47600001096725464
aF-0.2919999957084656
aF-0.34299999475479126
aF-0.25099998712539673
aF-0.22300000488758087
aF-0.23999999463558197
aF-0.27799999713897705
aF-0.3610000014305115
aF-0.3190000057220459
aF-0.29100000858306885
aF-0.2709999978542328
aF-0.26899999380111694
aF-0.257999986410141
aF-0.2280000001192093
aF-0.14100000262260437
aF-0.12700000405311584
aF-0.1420000046491623
aF-0.17399999499320984
aF-0.16599999368190765
aF-0.10999999940395355
aF-0.1679999977350235
aF-0.2029999941587448
aF-0.3089999854564667
aF-0.3050000071525574
aF-0.4699999988079071
aF-0.23100000619888306
aF-0.16699999570846558
aF-0.10300000011920929
aF-0.10599999874830246
aF-0.04699999839067459
aF-0.18299999833106995
aF-0.1469999998807907
aF-0.1979999989271164
aF-0.15399999916553497
aF-0.17800000309944153
aF-0.18400000035762787
aF-0.18400000035762787
aF-0.1679999977350235
aF-0.23499999940395355
aF-0.1899999976158142
aF-0.24799999594688416
aF-0.24199999868869781
aF-0.3529999852180481
aF-0.4059999883174896
aF-0.3400000035762787
aF-0.27799999713897705
aF-0.2840000092983246
aF-0.24899999797344208
aF-0.21199999749660492
aF-0.21699999272823334
aF-0.1770000010728836
aF-0.18000000715255737
aF-0.16699999570846558
aF-0.1459999978542328
aF-0.0860000029206276
aF-0.06199999898672104
aF-0.026000000536441803
aF0.008999999612569809
aF0.03799999877810478
aF0.04800000041723251
aF0.041999999433755875
aF0.04899999871850014
aF0.01600000075995922
aF-0.041999999433755875
aF-0.08399999886751175
aF-0.11900000274181366
aF-0.11599999666213989
aF-0.10700000077486038
aF-0.08500000089406967
aF-0.11299999803304672
aF-0.1120000034570694
aF-0.0430000014603138
aF-0.02199999988079071
aF-0.010999999940395355
aF-0.017000000923871994
aF-0.03099999949336052
aF-0.010999999940395355
aF0.020999999716877937
aF0.06400000303983688
aF0.03500000014901161
aF-0.22599999606609344
aF-1.8009999990463257
aF-4.320000171661377
aF-6.973999977111816
aF-9.024999618530273
aF-10.414999961853027
aF-11.095999717712402
aF-11.319999694824219
aF-11.189000129699707
aF-10.85099983215332
aF-10.477999687194824
aF-10.086000442504883
aF-9.763999938964844
aF-9.633999824523926
aF-9.579000473022461
aF-9.574999809265137
aF-9.600000381469727
aF-9.539999961853027
aF-9.644000053405762
aF-9.802000045776367
aF-9.934000015258789
aF-10.031000137329102
aF-10.152000427246094
aF-10.230999946594238
aF-9.753999710083008
aF-6.635000228881836
aF-1.3630000352859497
aF4.433000087738037
aF9.454000473022461
aF13.291000366210938
aF16.641000747680664
aF16.488000869750977
aF15.71500015258789
aF13.821000099182129
aF12.937999725341797
aF12.109000205993652
aF11.279000282287598
aF10.565999984741211
aF9.895999908447266
aF9.315999984741211
aF8.822999954223633
aF8.142999649047852
aF7.959000110626221
aF7.703000068664551
aF7.473999977111816
aF7.265999794006348
aF7.239999771118164
aF7.328999996185303
aF7.370999813079834
aF7.234000205993652
aF7.184000015258789
aF7.301000118255615
aF7.380000114440918
aF7.520999908447266
aF7.791999816894531
aF8.038000106811523
aF8.241999626159668
aF8.491000175476074
aF8.78499984741211
aF9.003000259399414
aF9.222999572753906
aF9.364999771118164
aF9.487000465393066
aF9.633000373840332
aF9.717000007629395
aF9.72599983215332
aF9.809000015258789
aF4.38100004196167
aF-6.297999858856201
aF-10.793999671936035
aF-14.074000358581543
aF-16.201000213623047
aF-17.356000900268555
aF-17.3439998626709
aF-15.246000289916992
aF-13.850000381469727
aF-12.6850004196167
aF-11.748000144958496
aF-11.20300006866455
aF-10.798999786376953
aF-10.229000091552734
aF-9.54699993133545
aF-9.0
aF-8.57699966430664
aF-8.342000007629395
aF-7.9730000495910645
aF-7.474999904632568
aF-7.0329999923706055
aF-6.6620001792907715
aF-6.47599983215332
aF-6.5
aF-6.589000225067139
aF-6.689000129699707
aF-6.988999843597412
aF-7.293000221252441
aF-7.5879998207092285
aF-8.133000373840332
aF-8.237000465393066
aF-8.34000015258789
aF-8.41100025177002
aF-8.496000289916992
aF-8.515000343322754
aF-8.545000076293945
aF-8.588000297546387
aF-8.616000175476074
aF-8.67199993133545
aF-8.602999687194824
asS'vx'
p8
(lp9
F-57.559444427490234
aF-52.77228927612305
aF-34.864891052246094
aF-18.16682243347168
aF-12.696195602416992
aF-9.170392036437988
aF-14.123464584350586
aF-26.919174194335938
aF-22.9842472076416
aF-29.64073371887207
aF-24.309974670410156
aF-17.206676483154297
aF-13.149435997009277
aF-7.82850456237793
aF-12.15910816192627
aF-11.755003929138184
aF-11.280913352966309
aF-10.023245811462402
aF-15.254653930664062
aF-9.744016647338867
aF-11.836372375488281
aF-6.016507625579834
aF-2.4575917720794678
aF1.9337161779403687
aF3.315105438232422
aF1.049299716949463
aF6.0549516677856445
aF8.270333290100098
aF18.979724884033203
aF14.362086296081543
aF10.221360206604004
aF0.4760960340499878
aF4.560894012451172
aF-0.371931791305542
aF3.604705333709717
aF-1.0819053649902344
aF13.598161697387695
aF8.292864799499512
aF6.688112735748291
aF6.3934807777404785
aF10.76113510131836
aF7.990178108215332
aF9.762415885925293
aF13.492364883422852
aF12.269277572631836
aF14.3385648727417
aF10.487399101257324
aF12.903261184692383
aF17.94501304626465
aF27.627288818359375
aF4.631940841674805
aF2.5079822540283203
aF-4.144354343414307
aF-10.819361686706543
aF-6.992798805236816
aF10.827899932861328
aF3.852173089981079
aF3.890369415283203
aF1.9967697858810425
aF2.374584436416626
aF1.865785002708435
aF0.10657919943332672
aF2.1801390647888184
aF4.5013322830200195
aF7.846285820007324
aF13.49250602722168
aF6.633832931518555
aF4.177310943603516
aF11.072948455810547
aF21.63547134399414
aF24.901134490966797
aF25.108051300048828
aF29.406259536743164
aF21.019821166992188
aF17.794902801513672
aF28.26471519470215
aF20.651569366455078
aF21.548372268676758
aF22.63458251953125
aF18.382160186767578
aF14.581279754638672
aF18.040842056274414
aF21.31144142150879
aF17.55608367919922
aF18.070451736450195
aF20.62310028076172
aF25.189489364624023
aF36.11160659790039
aF24.801132202148438
aF4.392168998718262
aF-39.82313919067383
aF-139.2922821044922
aF-204.16921997070312
aF-311.7626037597656
aF-470.77606201171875
aF-554.073486328125
aF-653.67578125
aF-739.9932250976562
aF-828.5516357421875
aF-928.8283081054688
aF-984.27197265625
aF-1074.6654052734375
aF-1127.86865234375
aF-1202.3179931640625
aF-1254.14306640625
aF-1323.617431640625
aF-1412.9423828125
aF-1525.420166015625
aF-1620.2900390625
aF-1692.12890625
aF-1739.8697509765625
aF-1768.648681640625
aF-1754.4613037109375
aF-1693.2449951171875
aF-1620.6781005859375
aF-1414.917724609375
aF-1195.7525634765625
aF-838.9000854492188
aF-687.7676391601562
aF-503.7662048339844
aF-220.35292053222656
aF-72.19175720214844
aF35.22446823120117
aF129.29518127441406
aF223.51043701171875
aF329.7728576660156
aF454.3765869140625
aF535.6695556640625
aF680.0626831054688
aF734.677490234375
aF776.3148193359375
aF831.284912109375
aF900.94580078125
aF935.0825805664062
aF960.7686157226562
aF1010.2721557617188
aF1062.3128662109375
aF1089.2786865234375
aF1296.165771484375
aF1357.06689453125
aF1414.90478515625
aF1439.6827392578125
aF1440.5533447265625
aF1439.689453125
aF1441.424072265625
aF1437.794677734375
aF1424.472412109375
aF1427.999267578125
aF1439.7855224609375
aF1434.6204833984375
aF1498.3118896484375
aF1645.3111572265625
aF1790.24951171875
aF1861.194580078125
aF2020.4267578125
aF1990.7406005859375
aF1834.8887939453125
aF1670.638427734375
aF1509.300048828125
aF1268.0263671875
aF1022.5819091796875
aF431.5429382324219
aF162.74307250976562
aF29.30662727355957
aF-62.725685119628906
aF-131.1888885498047
aF-247.23109436035156
aF-413.8060607910156
aF-372.9352722167969
aF-371.7966613769531
aF-386.5698547363281
aF-399.12225341796875
aF-428.3897399902344
aF-563.47119140625
aF-661.4511108398438
aF-608.9724731445312
aF-608.8264770507812
aF-668.3712768554688
aF-723.108154296875
aF-713.495361328125
aF-716.4324340820312
aF-747.7796020507812
aF-1091.6005859375
aF-1346.0838623046875
aF-1405.112060546875
aF-1466.8603515625
aF-1519.9775390625
aF-1565.43994140625
aF-1617.5452880859375
aF-1667.4852294921875
aF-1692.273681640625
aF-1727.17578125
aF-1821.592041015625
aF-1870.836181640625
asS'vy'
p10
(lp11
F-9.778050422668457
aF-5.865067005157471
aF-6.997416019439697
aF-1.3021094799041748
aF-0.4568938612937927
aF9.006555557250977
aF10.78234577178955
aF18.380861282348633
aF9.864407539367676
aF6.503798484802246
aF3.1047492027282715
aF-1.6427723169326782
aF-1.2355453968048096
aF-0.13597482442855835
aF4.216185569763184
aF8.693862915039062
aF12.540247917175293
aF9.790497779846191
aF9.575413703918457
aF10.340576171875
aF9.804729461669922
aF9.737993240356445
aF9.464774131774902
aF1.5457000732421875
aF0.1391858458518982
aF0.064067542552948
aF-1.4415032863616943
aF5.650426387786865
aF4.215740203857422
aF5.059075355529785
aF6.129568099975586
aF22.90670394897461
aF41.16461944580078
aF45.645572662353516
aF36.365970611572266
aF32.753334045410156
aF24.081253051757812
aF16.0124568939209
aF6.723514556884766
aF-6.190587997436523
aF-15.598670959472656
aF-19.914888381958008
aF-23.4592342376709
aF-26.546722412109375
aF-31.370342254638672
aF-32.78063201904297
aF-27.038442611694336
aF-25.03023338317871
aF-20.306529998779297
aF-18.586318969726562
aF-19.660728454589844
aF-17.390789031982422
aF-15.27908706665039
aF-19.52322006225586
aF-23.549192428588867
aF-15.490391731262207
aF-15.376260757446289
aF-9.619850158691406
aF-20.655733108520508
aF-27.026418685913086
aF-30.813873291015625
aF-28.395641326904297
aF-37.055110931396484
aF-35.252708435058594
aF-40.5406608581543
aF-36.691280364990234
aF-40.957542419433594
aF-29.487932205200195
aF-27.870525360107422
aF-23.56402587890625
aF-25.709369659423828
aF-28.86861801147461
aF-31.988733291625977
aF-35.48337173461914
aF-35.842552185058594
aF-42.13123321533203
aF-40.03668212890625
aF-38.09486389160156
aF-35.377113342285156
aF-38.65667724609375
aF-31.487598419189453
aF-37.04594421386719
aF-28.58443260192871
aF-27.356122970581055
aF-37.55125427246094
aF-35.38419723510742
aF-41.418128967285156
aF-45.77350616455078
aF-22.153152465820312
aF-8.450773239135742
aF11.923489570617676
aF13.398200035095215
aF6.236208438873291
aF-5.940210819244385
aF-25.949922561645508
aF-38.8486328125
aF-55.43265151977539
aF-61.79139709472656
aF-68.19971466064453
aF-76.9516830444336
aF-82.2011947631836
aF-89.84722137451172
aF-108.79130554199219
aF-120.17076110839844
aF-133.4994659423828
aF-140.70703125
aF-133.70535278320312
aF-133.06060791015625
aF-91.52056121826172
aF-88.31307220458984
aF-87.38298034667969
aF-79.11030578613281
aF-95.09049987792969
aF-131.64073181152344
aF-163.361572265625
aF-210.8925018310547
aF-206.02359008789062
aF-98.45050811767578
aF-75.6956558227539
aF-56.97638702392578
aF-55.65353775024414
aF-46.83954620361328
aF-53.85519790649414
aF-47.62771224975586
aF-50.552913665771484
aF-45.6399040222168
aF-43.54547119140625
aF-40.45552444458008
aF-22.445268630981445
aF-7.714386463165283
aF-9.811208724975586
aF1.4201055765151978
aF20.80071449279785
aF25.071529388427734
aF29.626691818237305
aF37.54804611206055
aF49.601646423339844
aF44.75654220581055
aF89.55122375488281
aF109.28685760498047
aF109.86579895019531
aF111.921630859375
aF120.46666717529297
aF119.13453674316406
aF120.04228973388672
aF107.78486633300781
aF97.82386016845703
aF97.65481567382812
aF87.46580505371094
aF74.58419799804688
aF42.952186584472656
aF-60.02351760864258
aF-89.56038665771484
aF-90.28738403320312
aF-3.898590564727783
aF77.11139678955078
aF57.25090408325195
aF3.9309563636779785
aF-16.16960906982422
aF-6.884565353393555
aF5.6051836013793945
aF21.035587310791016
aF24.16885757446289
aF11.600651741027832
aF-0.3590628504753113
aF-8.591096878051758
aF-32.07049560546875
aF-63.79155349731445
aF-60.16677474975586
aF-68.35063171386719
aF-69.16515350341797
aF-67.17202758789062
aF-69.98428344726562
aF-79.04991149902344
aF-80.69412231445312
aF-72.62723541259766
aF-55.13750076293945
aF-61.98214340209961
aF-68.26603698730469
aF-56.8932991027832
aF-50.578697204589844
aF-43.066341400146484
aF-51.063453674316406
aF-51.738765716552734
aF-70.52754211425781
aF-63.38739013671875
aF-55.1724967956543
aF-64.4840316772461
aF-68.00064086914062
aF-58.237152099609375
aF-55.44485092163086
aF-61.71366500854492
aF-66.84207916259766
aF-48.15963363647461
asS'ph'
p12
(lp13
F-0.4169999957084656
aF-0.34200000762939453
aF-0.25200000405311584
aF-0.2750000059604645
aF-0.29899999499320984
aF-0.32100000977516174
aF-0.23800000548362732
aF-0.1550000011920929
aF0.017999999225139618
aF-0.0010000000474974513
aF-0.006000000052154064
aF-0.032999999821186066
aF-0.15299999713897705
aF-0.20100000500679016
aF-0.18299999833106995
aF-0.12200000137090683
aF-0.08299999684095383
aF-0.08500000089406967
aF-0.0729999989271164
aF-0.04899999871850014
aF-0.05000000074505806
aF0.006000000052154064
aF0.08299999684095383
aF0.023000000044703484
aF-0.06599999964237213
aF-0.10499999672174454
aF-0.21899999678134918
aF-0.25099998712539673
aF-0.1940000057220459
aF-0.19300000369548798
aF-0.20000000298023224
aF0.13099999725818634
aF0.18299999833106995
aF0.1860000044107437
aF0.2199999988079071
aF0.23199999332427979
aF0.2709999978542328
aF0.2409999966621399
aF0.17299999296665192
aF0.10999999940395355
aF0.05999999865889549
aF0.029999999329447746
aF-0.009999999776482582
aF-0.035999998450279236
aF-0.003000000026077032
aF-0.01600000075995922
aF-0.04100000113248825
aF-0.04899999871850014
aF-0.0430000014603138
aF-0.019999999552965164
aF0.010999999940395355
aF0.04800000041723251
aF0.10199999809265137
aF0.14100000262260437
aF0.0989999994635582
aF0.08500000089406967
aF0.11599999666213989
aF0.10599999874830246
aF0.10100000351667404
aF0.07100000232458115
aF0.026000000536441803
aF0.007000000216066837
aF0.014000000432133675
aF0.0020000000949949026
aF0.052000001072883606
aF0.03700000047683716
aF-0.0020000000949949026
aF-0.020999999716877937
aF-0.0020000000949949026
aF0.027000000700354576
aF0.057999998331069946
aF0.0560000017285347
aF0.09000000357627869
aF0.17299999296665192
aF0.16899999976158142
aF0.11400000005960464
aF0.09399999678134918
aF0.04899999871850014
aF0.06199999898672104
aF0.057999998331069946
aF0.019999999552965164
aF0.02500000037252903
aF0.014999999664723873
aF0.0860000029206276
aF0.15399999916553497
aF0.1850000023841858
aF0.11900000274181366
aF0.13099999725818634
aF0.10700000077486038
aF0.017000000923871994
aF-0.039000000804662704
aF-0.013000000268220901
aF0.03400000184774399
aF0.10999999940395355
aF0.1679999977350235
aF0.19499999284744263
aF0.2619999945163727
aF0.22699999809265137
aF0.14499999582767487
aF0.14000000059604645
aF0.2199999988079071
aF0.20399999618530273
aF0.12600000202655792
aF0.009999999776482582
aF-0.02800000086426735
aF-0.09700000286102295
aF-0.09099999815225601
aF-0.04399999976158142
aF-0.07900000363588333
aF-0.10499999672174454
aF-0.18000000715255737
aF-0.3089999854564667
aF-0.2029999941587448
aF-0.10199999809265137
aF-0.07500000298023224
aF0.0020000000949949026
aF-0.032999999821186066
aF0.19499999284744263
aF0.382999986410141
aF0.3840000033378601
aF0.12999999523162842
aF-0.026000000536441803
aF-0.09099999815225601
aF-0.17399999499320984
aF-0.26499998569488525
aF-0.3140000104904175
aF-0.3720000088214874
aF-0.4020000100135803
aF-0.3700000047683716
aF-0.3109999895095825
aF-0.2680000066757202
aF-0.25699999928474426
aF-0.3160000145435333
aF-0.3370000123977661
aF-0.27300000190734863
aF-0.2549999952316284
aF-0.13600000739097595
aF-0.006000000052154064
aF0.05299999937415123
aF0.12700000405311584
aF0.1589999943971634
aF0.026000000536441803
aF-0.07500000298023224
aF-0.10999999940395355
aF-0.11900000274181366
aF-0.10000000149011612
aF-0.16500000655651093
aF-0.17000000178813934
aF-0.14100000262260437
aF-0.10199999809265137
aF-0.04600000008940697
aF0.009999999776482582
aF-0.050999999046325684
aF-0.07000000029802322
aF-0.10599999874830246
aF-0.1120000034570694
aF-0.13300000131130219
aF-0.3070000112056732
aF-0.6679999828338623
aF-0.8389999866485596
aF-0.7139999866485596
aF0.24799999594688416
aF0.5989999771118164
aF0.9940000176429749
aF1.2799999713897705
aF1.4830000400543213
aF1.6119999885559082
aF1.7000000476837158
aF1.5959999561309814
aF1.2940000295639038
aF0.8389999866485596
aF0.35899999737739563
aF-0.11800000071525574
aF-0.5419999957084656
aF-0.8040000200271606
aF-0.8999999761581421
aF-0.8399999737739563
aF-0.5960000157356262
aF-0.44999998807907104
aF-0.46399998664855957
aF-0.43299999833106995
aF-0.41499999165534973
aF-0.34700000286102295
aF-0.12999999523162842
aF-0.07400000095367432
aF-0.09000000357627869
aF-0.10100000351667404
aF-0.050999999046325684
aF-0.027000000700354576
aF0.007000000216066837
aF0.07500000298023224
aF0.08500000089406967
aF0.06400000303983688
aF0.09799999743700027
asS'nd'
p14
(lp15
ccopy_reg
_reconstructor
p16
(cdynamics.msg._Navdata
Navdata
p17
c__builtin__
object
p18
Ntp19
Rp20
(lp21
g16
(cstd_msgs.msg._Header
Header
p22
g18
Ntp23
Rp24
(lp25
I3177
ag16
(cgenpy.rostime
Time
p26
g18
Ntp27
Rp28
(lp29
I1350917649
aI557838295
abaS'ardrone_base_link'
p30
abaF84.0
aI6
aI9
aI-127
aI161
aI101979
aI396
aF0.060591526329517365
aF101.07234191894531
aF0.0
aF-0.4169999957084656
aF0.2809999883174896
aF4.823999881744385
aI701
aF-57.559444427490234
aF-9.778050422668457
aF-0.0
aF0.038474977016448975
aF-0.015056931413710117
aF1.0217479467391968
aI0
a(ta(ta(ta(ta(ta(ta(taF2938762496.0
abag16
(g17
g18
Ntp31
Rp32
(lp33
g16
(g22
g18
Ntp34
Rp35
(lp36
I3178
ag16
(g26
g18
Ntp37
Rp38
(lp39
I1350917649
aI665999633
abaS'ardrone_base_link'
p40
abaF84.0
aI6
aI6
aI-132
aI164
aI101982
aI396
aF0.06169337406754494
aF102.75467681884766
aF0.0
aF-0.34200000762939453
aF0.31299999356269836
aF4.806000232696533
aI702
aF-52.77228927612305
aF-5.865067005157471
aF-0.0
aF0.030460380017757416
aF-0.013978003524243832
aF1.01359224319458
aI0
a(ta(ta(ta(ta(ta(ta(taF2938827520.0
abag16
(g17
g18
Ntp41
Rp42
(lp43
g16
(g22
g18
Ntp44
Rp45
(lp46
I3179
ag16
(g26
g18
Ntp47
Rp48
(lp49
I1350917649
aI694096999
abaS'ardrone_base_link'
p50
abaF84.0
aI6
aI6
aI-124
aI166
aI101988
aI396
aF0.06330627202987671
aF101.84529876708984
aF0.0
aF-0.25200000405311584
aF0.22100000083446503
aF4.814000129699707
aI709
aF-34.864891052246094
aF-6.997416019439697
aF-0.0
aF0.07423051446676254
aF-0.008304128423333168
aF0.9827287197113037
aI0
a(ta(ta(ta(ta(ta(ta(taF2938957824.0
abag16
(g17
g18
Ntp51
Rp52
(lp53
g16
(g22
g18
Ntp54
Rp55
(lp56
I3180
ag16
(g26
g18
Ntp57
Rp58
(lp59
I1350917649
aI772705510
abaS'ardrone_base_link'
p60
abaF84.0
aI6
aI5
aI-133
aI169
aI101966
aI396
aF0.06248954311013222
aF99.27535247802734
aF0.0
aF-0.2750000059604645
aF0.16200000047683716
aF4.813000202178955
aI713
aF-18.16682243347168
aF-1.3021094799041748
aF-0.0
aF0.07581900805234909
aF-0.014346052892506123
aF0.9589200615882874
aI0
a(ta(ta(ta(ta(ta(ta(taF2939022848.0
abag16
(g17
g18
Ntp61
Rp62
(lp63
g16
(g22
g18
Ntp64
Rp65
(lp66
I3181
ag16
(g26
g18
Ntp67
Rp68
(lp69
I1350917649
aI866030784
abaS'ardrone_base_link'
p70
abaF84.0
aI6
aI3
aI-125
aI159
aI101985
aI396
aF0.06274309009313583
aF96.61151123046875
aF0.0
aF-0.29899999499320984
aF-0.04500000178813934
aF4.8429999351501465
aI716
aF-12.696195602416992
aF-0.4568938612937927
aF-0.0
aF0.07257296144962311
aF-0.017315519973635674
aF0.9266787767410278
aI0
a(ta(ta(ta(ta(ta(ta(taF2939087616.0
abag16
(g17
g18
Ntp71
Rp72
(lp73
g16
(g22
g18
Ntp74
Rp75
(lp76
I3182
ag16
(g26
g18
Ntp77
Rp78
(lp79
I1350917649
aI928833493
abaS'ardrone_base_link'
p80
abaF84.0
aI6
aI3
aI-125
aI165
aI101976
aI396
aF0.06262726336717606
aF94.64799499511719
aF0.0
aF-0.32100000977516174
aF-0.2630000114440918
aF4.861000061035156
aI716
aF-9.170392036437988
aF9.006555557250977
aF-0.0
aF0.058162156492471695
aF-0.01419555302709341
aF0.9172589778900146
aI0
a(ta(ta(ta(ta(ta(ta(taF2940249856.0
abag16
(g17
g18
Ntp81
Rp82
(lp83
g16
(g22
g18
Ntp84
Rp85
(lp86
I3183
ag16
(g26
g18
Ntp87
Rp88
(lp89
I1350917650
aI82736302
abaS'ardrone_base_link'
p90
abaF84.0
aI6
aI2
aI-128
aI166
aI101979
aI396
aF0.06312672793865204
aF94.00285339355469
aF0.0
aF-0.23800000548362732
aF-0.4320000112056732
aF4.866000175476074
aI718
aF-14.123464584350586
aF10.78234577178955
aF-0.0
aF0.04675731062889099
aF-0.007839031517505646
aF0.8934886455535889
aI0
a(ta(ta(ta(ta(ta(ta(taF2940315136.0
abag16
(g17
g18
Ntp91
Rp92
(lp93
g16
(g22
g18
Ntp94
Rp95
(lp96
I3184
ag16
(g26
g18
Ntp97
Rp98
(lp99
I1350917650
aI106082625
abaS'ardrone_base_link'
p100
abaF84.0
aI6
aI13
aI-125
aI163
aI101982
aI396
aF0.06315948069095612
aF95.13734436035156
aF0.0
aF-0.1550000011920929
aF-0.47600001096725464
aF4.88100004196167
aI723
aF-26.919174194335938
aF18.380861282348633
aF-0.0
aF0.03821071609854698
aF-0.007584311533719301
aF0.8992077112197876
aI0
a(ta(ta(ta(ta(ta(ta(taF2940379904.0
abag16
(g17
g18
Ntp101
Rp102
(lp103
g16
(g22
g18
Ntp104
Rp105
(lp106
I3185
ag16
(g26
g18
Ntp107
Rp108
(lp109
I1350917650
aI166641359
abaS'ardrone_base_link'
p110
abaF84.0
aI6
aI7
aI-127
aI167
aI101969
aI396
aF0.06505848467350006
aF96.28118896484375
aF0.0
aF0.017999999225139618
aF-0.2919999957084656
aF4.881999969482422
aI724
aF-22.9842472076416
aF9.864407539367676
aF-0.0
aF0.03813031315803528
aF-0.021755795925855637
aF0.9578654766082764
aI0
a(ta(ta(ta(ta(ta(ta(taF2940509952.0
abag16
(g17
g18
Ntp111
Rp112
(lp113
g16
(g22
g18
Ntp114
Rp115
(lp116
I3186
ag16
(g26
g18
Ntp117
Rp118
(lp119
I1350917650
aI246027393
abaS'ardrone_base_link'
p120
abaF84.0
aI6
aI-2
aI-124
aI162
aI101969
aI396
aF0.06617029011249542
aF96.84144592285156
aF0.0
aF-0.0010000000474974513
aF-0.34299999475479126
aF4.883999824523926
aI725
aF-29.64073371887207
aF6.503798484802246
aF-0.0
aF0.03237193822860718
aF-0.01650148257613182
aF0.9734247922897339
aI0
a(ta(ta(ta(ta(ta(ta(taF2940574976.0
abag16
(g17
g18
Ntp121
Rp122
(lp123
g16
(g22
g18
Ntp124
Rp125
(lp126
I3187
ag16
(g26
g18
Ntp127
Rp128
(lp129
I1350917650
aI326028636
abaS'ardrone_base_link'
p130
abaF84.0
aI6
aI10
aI-128
aI168
aI101985
aI396
aF0.06676802784204483
aF96.61969757080078
aF0.0
aF-0.006000000052154064
aF-0.25099998712539673
aF4.867000102996826
aI723
aF-24.309974670410156
aF3.1047492027282715
aF-0.0
aF0.04748363420367241
aF-0.01352524571120739
aF0.9751319289207458
aI0
a(ta(ta(ta(ta(ta(ta(taF2940640256.0
abag16
(g17
g18
Ntp131
Rp132
(lp133
g16
(g22
g18
Ntp134
Rp135
(lp136
I3188
ag16
(g26
g18
Ntp137
Rp138
(lp139
I1350917650
aI349992421
abaS'ardrone_base_link'
p140
abaF84.0
aI6
aI9
aI-131
aI161
aI101982
aI396
aF0.06773027777671814
aF96.36241912841797
aF0.0
aF-0.032999999821186066
aF-0.22300000488758087
aF4.843999862670898
aI722
aF-17.206676483154297
aF-1.6427723169326782
aF-0.0
aF0.04707140102982521
aF-0.013649999164044857
aF0.9863796830177307
aI0
a(ta(ta(ta(ta(ta(ta(taF2940705024.0
abag16
(g17
g18
Ntp141
Rp142
(lp143
g16
(g22
g18
Ntp144
Rp145
(lp146
I3189
ag16
(g26
g18
Ntp147
Rp148
(lp149
I1350917650
aI413655285
abaS'ardrone_base_link'
p150
abaF84.0
aI6
aI2
aI-126
aI162
aI101979
aI396
aF0.06814948469400406
aF95.7208023071289
aF0.0
aF-0.15299999713897705
aF-0.23999999463558197
aF4.824999809265137
aI722
aF-13.149435997009277
aF-1.2355453968048096
aF-0.0
aF0.05294942483305931
aF-0.015155625529587269
aF0.9812376499176025
aI0
a(ta(ta(ta(ta(ta(ta(taF2940770048.0
abag16
(g17
g18
Ntp151
Rp152
(lp153
g16
(g22
g18
Ntp154
Rp155
(lp156
I3190
ag16
(g26
g18
Ntp157
Rp158
(lp159
I1350917650
aI506942560
abaS'ardrone_base_link'
p160
abaF84.0
aI6
aI6
aI-122
aI162
aI101969
aI396
aF0.06886469572782516
aF94.9380874633789
aF0.0
aF-0.20100000500679016
aF-0.27799999713897705
aF4.816999912261963
aI721
aF-7.82850456237793
aF-0.13597482442855835
aF-0.0
aF0.0416623018682003
aF-0.018866868689656258
aF0.9816126823425293
aI0
a(ta(ta(ta(ta(ta(ta(taF2940835328.0
abag16
(g17
g18
Ntp161
Rp162
(lp163
g16
(g22
g18
Ntp164
Rp165
(lp166
I3191
ag16
(g26
g18
Ntp167
Rp168
(lp169
I1350917650
aI546030966
abaS'ardrone_base_link'
p170
abaF84.0
aI6
aI7
aI-121
aI161
aI101973
aI396
aF0.069184310734272
aF94.65937805175781
aF0.0
aF-0.18299999833106995
aF-0.3610000014305115
aF4.800000190734863
aI719
aF-12.15910816192627
aF4.216185569763184
aF-0.0
aF0.05008896812796593
aF-0.014141540974378586
aF0.9788098931312561
aI0
a(ta(ta(ta(ta(ta(ta(taF2940900096.0
abag16
(g17
g18
Ntp171
Rp172
(lp173
g16
(g22
g18
Ntp174
Rp175
(lp176
I3192
ag16
(g26
g18
Ntp177
Rp178
(lp179
I1350917650
aI688645360
abaS'ardrone_base_link'
p180
abaF84.0
aI6
aI4
aI-128
aI160
aI101973
aI396
aF0.0696457102894783
aF94.22250366210938
aF0.0
aF-0.12200000137090683
aF-0.3190000057220459
aF4.795000076293945
aI719
aF-11.755003929138184
aF8.693862915039062
aF-0.0
aF0.05714298412203789
aF-0.016510020941495895
aF0.9686506986618042
aI0
a(ta(ta(ta(ta(ta(ta(taF2940965376.0
abag16
(g17
g18
Ntp181
Rp182
(lp183
g16
(g22
g18
Ntp184
Rp185
(lp186
I3193
ag16
(g26
g18
Ntp187
Rp188
(lp189
I1350917650
aI746026303
abaS'ardrone_base_link'
p190
abaF84.0
aI6
aI1
aI-127
aI163
aI101982
aI396
aF0.06999945640563965
aF93.77265167236328
aF0.0
aF-0.08299999684095383
aF-0.29100000858306885
aF4.794000148773193
aI720
aF-11.280913352966309
aF12.540247917175293
aF-0.0
aF0.05400678142905235
aF-0.01630767621099949
aF0.9319446086883545
aI0
a(ta(ta(ta(ta(ta(ta(taF2941030400.0
abag16
(g17
g18
Ntp191
Rp192
(lp193
g16
(g22
g18
Ntp194
Rp195
(lp196
I3194
ag16
(g26
g18
Ntp197
Rp198
(lp199
I1350917650
aI768861380
abaS'ardrone_base_link'
p200
abaF84.0
aI6
aI4
aI-126
aI162
aI101979
aI396
aF0.0702715516090393
aF92.9732894897461
aF0.0
aF-0.08500000089406967
aF-0.2709999978542328
aF4.796999931335449
aI721
aF-10.023245811462402
aF9.790497779846191
aF-0.0
aF0.05486523360013962
aF-0.010302932932972908
aF0.9002968668937683
aI0
a(ta(ta(ta(ta(ta(ta(taF2941095424.0
abag16
(g17
g18
Ntp201
Rp202
(lp203
g16
(g22
g18
Ntp204
Rp205
(lp206
I3195
ag16
(g26
g18
Ntp207
Rp208
(lp209
I1350917650
aI868606001
abaS'ardrone_base_link'
p210
abaF84.0
aI6
aI9
aI-123
aI161
aI101976
aI396
aF0.0706620067358017
aF92.92675018310547
aF0.0
aF-0.0729999989271164
aF-0.26899999380111694
aF4.815000057220459
aI723
aF-15.254653930664062
aF9.575413703918457
aF-0.0
aF0.05579590052366257
aF-0.016812793910503387
aF0.8964482545852661
aI0
a(ta(ta(ta(ta(ta(ta(taF2941160448.0
abag16
(g17
g18
Ntp211
Rp212
(lp213
g16
(g22
g18
Ntp214
Rp215
(lp216
I3196
ag16
(g26
g18
Ntp217
Rp218
(lp219
I1350917650
aI957609523
abaS'ardrone_base_link'
p220
abaF84.0
aI6
aI6
aI-124
aI162
aI101982
aI396
aF0.07138675451278687
aF92.18488311767578
aF0.0
aF-0.04899999871850014
aF-0.257999986410141
aF4.828000068664551
aI722
aF-9.744016647338867
aF10.340576171875
aF-0.0
aF0.051800794899463654
aF-0.013752167113125324
aF0.906940221786499
aI0
a(ta(ta(ta(ta(ta(ta(taF2942322432.0
abag16
(g17
g18
Ntp221
Rp222
(lp223
g16
(g22
g18
Ntp224
Rp225
(lp226
I3197
ag16
(g26
g18
Ntp227
Rp228
(lp229
I1350917651
aI28827971
abaS'ardrone_base_link'
p230
abaF84.0
aI6
aI9
aI-125
aI167
aI101982
aI396
aF0.07211162894964218
aF92.1524887084961
aF0.0
aF-0.05000000074505806
aF-0.2280000001192093
aF4.822000026702881
aI722
aF-11.836372375488281
aF9.804729461669922
aF-0.0
aF0.04581049829721451
aF-0.012236148118972778
aF0.933303952217102
aI0
a(ta(ta(ta(ta(ta(ta(taF2942387712.0
abag16
(g17
g18
Ntp231
Rp232
(lp233
g16
(g22
g18
Ntp234
Rp235
(lp236
I3198
ag16
(g26
g18
Ntp237
Rp238
(lp239
I1350917651
aI56481141
abaS'ardrone_base_link'
p240
abaF84.0
aI4
aI7
aI-127
aI161
aI101969
aI396
aF0.07281564921140671
aF92.11751556396484
aF0.0
aF0.006000000052154064
aF-0.14100000262260437
aF4.820000171661377
aI722
aF-6.016507625579834
aF9.737993240356445
aF-0.0
aF0.04180871322751045
aF-0.01371263898909092
aF0.9469477534294128
aI0
a(ta(ta(ta(ta(ta(ta(taF2942452736.0
abag16
(g17
g18
Ntp241
Rp242
(lp243
g16
(g22
g18
Ntp244
Rp245
(lp246
I3199
ag16
(g26
g18
Ntp247
Rp248
(lp249
I1350917651
aI115803013
abaS'ardrone_base_link'
p250
abaF84.0
aI4
aI6
aI-126
aI164
aI101969
aI396
aF0.07329811155796051
aF91.90458679199219
aF0.0
aF0.08299999684095383
aF-0.12700000405311584
aF4.822999954223633
aI721
aF-2.4575917720794678
aF9.464774131774902
aF-0.0
aF0.048805996775627136
aF-0.014166432432830334
aF0.9603312015533447
aI0
a(ta(ta(ta(ta(ta(ta(taF2942517760.0
abag16
(g17
g18
Ntp251
Rp252
(lp253
g16
(g22
g18
Ntp254
Rp255
(lp256
I3200
ag16
(g26
g18
Ntp257
Rp258
(lp259
I1350917651
aI146029682
abaS'ardrone_base_link'
p260
abaF84.0
aI4
aI12
aI-128
aI156
aI101973
aI396
aF0.07431788742542267
aF91.2647476196289
aF0.0
aF0.023000000044703484
aF-0.1420000046491623
aF4.817999839782715
aI718
aF1.9337161779403687
aF1.5457000732421875
aF-0.0
aF0.05919148772954941
aF-0.01749682053923607
aF0.968829870223999
aI0
a(ta(ta(ta(ta(ta(ta(taF2942582784.0
abag16
(g17
g18
Ntp261
Rp262
(lp263
g16
(g22
g18
Ntp264
Rp265
(lp266
I3201
ag16
(g26
g18
Ntp267
Rp268
(lp269
I1350917651
aI273057858
abaS'ardrone_base_link'
p270
abaF84.0
aI4
aI3
aI-129
aI159
aI101979
aI396
aF0.075047068297863
aF90.92329406738281
aF0.0
aF-0.06599999964237213
aF-0.17399999499320984
aF4.788000106811523
aI716
aF3.315105438232422
aF0.1391858458518982
aF-0.0
aF0.05070667713880539
aF-0.012948185205459595
aF0.9766450524330139
aI0
a(ta(ta(ta(ta(ta(ta(taF2942647808.0
abag16
(g17
g18
Ntp271
Rp272
(lp273
g16
(g22
g18
Ntp274
Rp275
(lp276
I3202
ag16
(g26
g18
Ntp277
Rp278
(lp279
I1350917651
aI326028028
abaS'ardrone_base_link'
p280
abaF84.0
aI4
aI7
aI-131
aI169
aI101988
aI396
aF0.07554963231086731
aF91.64328002929688
aF0.0
aF-0.10499999672174454
aF-0.16599999368190765
aF4.791999816894531
aI715
aF1.049299716949463
aF0.064067542552948
aF-0.0
aF0.02962454967200756
aF-0.010790341533720493
aF0.9779817461967468
aI0
a(ta(ta(ta(ta(ta(ta(taF2942713088.0
abag16
(g17
g18
Ntp281
Rp282
(lp283
g16
(g22
g18
Ntp284
Rp285
(lp286
I3203
ag16
(g26
g18
Ntp287
Rp288
(lp289
I1350917651
aI377769162
abaS'ardrone_base_link'
p290
abaF84.0
aI4
aI1
aI-127
aI165
aI101969
aI396
aF0.07658634334802628
aF92.80054473876953
aF0.0
aF-0.21899999678134918
aF-0.10999999940395355
aF4.791999816894531
aI714
aF6.0549516677856445
aF-1.4415032863616943
aF-0.0
aF0.02516208402812481
aF-0.00915372371673584
aF0.9812077283859253
aI0
a(ta(ta(ta(ta(ta(ta(taF2942777856.0
abag16
(g17
g18
Ntp291
Rp292
(lp293
g16
(g22
g18
Ntp294
Rp295
(lp296
I3204
ag16
(g26
g18
Ntp297
Rp298
(lp299
I1350917651
aI388655329
abaS'ardrone_base_link'
p300
abaF84.0
aI4
aI1
aI-129
aI163
aI101979
aI396
aF0.07682175189256668
aF94.32844543457031
aF0.0
aF-0.25099998712539673
aF-0.1679999977350235
aF4.7729997634887695
aI712
aF8.270333290100098
aF5.650426387786865
aF-0.0
aF0.037112101912498474
aF-0.015133006498217583
aF0.9892656207084656
aI0
a(ta(ta(ta(ta(ta(ta(taF2942843648.0
abag16
(g17
g18
Ntp301
Rp302
(lp303
g16
(g22
g18
Ntp304
Rp305
(lp306
I3205
ag16
(g26
g18
Ntp307
Rp308
(lp309
I1350917651
aI452663006
abaS'ardrone_base_link'
p310
abaF84.0
aI4
aI5
aI-131
aI163
aI101992
aI396
aF0.07715125381946564
aF93.30535888671875
aF0.0
aF-0.1940000057220459
aF-0.2029999941587448
aF4.756999969482422
aI709
aF18.979724884033203
aF4.215740203857422
aF-0.0
aF0.06452366709709167
aF-0.016315864399075508
aF0.9964778423309326
aI0
a(ta(ta(ta(ta(ta(ta(taF2942907904.0
abag16
(g17
g18
Ntp311
Rp312
(lp313
g16
(g22
g18
Ntp314
Rp315
(lp316
I3206
ag16
(g26
g18
Ntp317
Rp318
(lp319
I1350917651
aI573394124
abaS'ardrone_base_link'
p320
abaF84.0
aI4
aI3
aI-127
aI165
aI101976
aI396
aF0.07747776806354523
aF92.06767272949219
aF0.0
aF-0.19300000369548798
aF-0.3089999854564667
aF4.745999813079834
aI706
aF14.362086296081543
aF5.059075355529785
aF-0.0
aF0.05947042629122734
aF-0.016219642013311386
aF0.9991689324378967
aI0
a(ta(ta(ta(ta(ta(ta(taF2942972928.0
abag16
(g17
g18
Ntp321
Rp322
(lp323
g16
(g22
g18
Ntp324
Rp325
(lp326
I3207
ag16
(g26
g18
Ntp327
Rp328
(lp329
I1350917651
aI686054001
abaS'ardrone_base_link'
p330
abaF84.0
aI3
aI1
aI-127
aI163
aI101982
aI396
aF0.07847592979669571
aF90.6767807006836
aF0.0
aF-0.20000000298023224
aF-0.3050000071525574
aF4.749000072479248
aI703
aF10.221360206604004
aF6.129568099975586
aF-0.0
aF0.053671784698963165
aF-0.016170835122466087
aF0.9409040212631226
aI0
a(ta(ta(ta(ta(ta(ta(taF2943102976.0
abag16
(g17
g18
Ntp331
Rp332
(lp333
g16
(g22
g18
Ntp334
Rp335
(lp336
I3208
ag16
(g26
g18
Ntp337
Rp338
(lp339
I1350917651
aI832206835
abaS'ardrone_base_link'
p340
abaF84.0
aI3
aI2
aI-130
aI162
aI101957
aI396
aF0.07886955887079239
aF89.88959503173828
aF0.0
aF0.13099999725818634
aF-0.4699999988079071
aF4.35099983215332
aI709
aF0.4760960340499878
aF22.90670394897461
aF-0.0
aF0.057614296674728394
aF-0.0183771513402462
aF0.9989309310913086
aI0
a(ta(ta(ta(ta(ta(ta(taF2943233024.0
abag16
(g17
g18
Ntp341
Rp342
(lp343
g16
(g22
g18
Ntp344
Rp345
(lp346
I3209
ag16
(g26
g18
Ntp347
Rp348
(lp349
I1350917652
aI46099803
abaS'ardrone_base_link'
p350
abaF84.0
aI3
aI9
aI-129
aI165
aI101973
aI396
aF0.07852042466402054
aF86.87702178955078
aF0.0
aF0.18299999833106995
aF-0.23100000619888306
aF3.6530001163482666
aI775
aF4.560894012451172
aF41.16461944580078
aF-0.0
aF0.053900133818387985
aF-0.009234326891601086
aF1.0981591939926147
aI0
a(ta(ta(ta(ta(ta(ta(taF2944525568.0
abag16
(g17
g18
Ntp351
Rp352
(lp353
g16
(g22
g18
Ntp354
Rp355
(lp356
I3210
ag16
(g26
g18
Ntp357
Rp358
(lp359
I1350917652
aI93928312
abaS'ardrone_base_link'
p360
abaF84.0
aI3
aI7
aI-125
aI163
aI101979
aI396
aF0.07736921310424805
aF86.61891174316406
aF0.0
aF0.1860000044107437
aF-0.16699999570846558
aF3.4100000858306885
aI813
aF-0.371931791305542
aF45.645572662353516
aF-0.0
aF0.04967515170574188
aF-0.007723770570009947
aF1.0424749851226807
aI0
a(ta(ta(ta(ta(ta(ta(taF2944590592.0
abag16
(g17
g18
Ntp361
Rp362
(lp363
g16
(g22
g18
Ntp364
Rp365
(lp366
I3211
ag16
(g26
g18
Ntp367
Rp368
(lp369
I1350917652
aI171203951
abaS'ardrone_base_link'
p370
abaF84.0
aI3
aI1
aI-125
aI159
aI101969
aI396
aF0.07744503021240234
aF86.06552124023438
aF0.0
aF0.2199999988079071
aF-0.10300000011920929
aF3.183000087738037
aI851
aF3.604705333709717
aF36.365970611572266
aF-0.0
aF0.05095741152763367
aF-0.010027660056948662
aF1.0296618938446045
aI0
a(ta(ta(ta(ta(ta(ta(taF2944655616.0
abag16
(g17
g18
Ntp371
Rp372
(lp373
g16
(g22
g18
Ntp374
Rp375
(lp376
I3212
ag16
(g26
g18
Ntp377
Rp378
(lp379
I1350917652
aI208847138
abaS'ardrone_base_link'
p380
abaF84.0
aI3
aI7
aI-129
aI161
aI101969
aI396
aF0.0773426964879036
aF86.20577239990234
aF0.0
aF0.23199999332427979
aF-0.10599999874830246
aF2.9509999752044678
aI889
aF-1.0819053649902344
aF32.753334045410156
aF-0.0
aF0.04546525701880455
aF-0.014366889372467995
aF1.0236859321594238
aI0
a(ta(ta(ta(ta(ta(ta(taF2944720640.0
abag16
(g17
g18
Ntp381
Rp382
(lp383
g16
(g22
g18
Ntp384
Rp385
(lp386
I3213
ag16
(g26
g18
Ntp387
Rp388
(lp389
I1350917652
aI246095044
abaS'ardrone_base_link'
p390
abaF84.0
aI3
aI6
aI-124
aI158
aI101985
aI396
aF0.07740935683250427
aF85.68276977539062
aF0.0
aF0.2709999978542328
aF-0.04699999839067459
aF2.734999895095825
aI932
aF13.598161697387695
aF24.081253051757812
aF-0.0
aF0.048422593623399734
aF-0.010728619061410427
aF1.0180261135101318
aI0
a(ta(ta(ta(ta(ta(ta(taF2944785408.0
abag16
(g17
g18
Ntp391
Rp392
(lp393
g16
(g22
g18
Ntp394
Rp395
(lp396
I3214
ag16
(g26
g18
Ntp397
Rp398
(lp399
I1350917652
aI358217546
abaS'ardrone_base_link'
p400
abaF84.0
aI3
aI8
aI-128
aI164
aI101966
aI396
aF0.07765920460224152
aF85.41075134277344
aF0.0
aF0.2409999966621399
aF-0.18299999833106995
aF2.5169999599456787
aI975
aF8.292864799499512
aF16.0124568939209
aF-0.0
aF0.04544014483690262
aF-0.008820733986794949
aF0.9942335486412048
aI0
a(ta(ta(ta(ta(ta(ta(taF2944850688.0
abag16
(g17
g18
Ntp401
Rp402
(lp403
g16
(g22
g18
Ntp404
Rp405
(lp406
I3215
ag16
(g26
g18
Ntp407
Rp408
(lp409
I1350917652
aI366108459
abaS'ardrone_base_link'
p410
abaF84.0
aI3
aI8
aI-124
aI162
aI101979
aI396
aF0.0775846615433693
aF85.4554214477539
aF0.0
aF0.17299999296665192
aF-0.1469999998807907
aF2.309999942779541
aI1023
aF6.688112735748291
aF6.723514556884766
aF-0.0
aF0.040151018649339676
aF-0.012372815981507301
aF0.9803178906440735
aI0
a(ta(ta(ta(ta(ta(ta(taF2944915712.0
abag16
(g17
g18
Ntp411
Rp412
(lp413
g16
(g22
g18
Ntp414
Rp415
(lp416
I3216
ag16
(g26
g18
Ntp417
Rp418
(lp419
I1350917652
aI486076926
abaS'ardrone_base_link'
p420
abaF84.0
aI3
aI7
aI-123
aI165
aI101979
aI396
aF0.07803560793399811
aF85.35893249511719
aF0.0
aF0.10999999940395355
aF-0.1979999989271164
aF2.13700008392334
aI1068
aF6.3934807777404785
aF-6.190587997436523
aF-0.0
aF0.04183119535446167
aF-0.011509045027196407
aF0.9546008706092834
aI0
a(ta(ta(ta(ta(ta(ta(taF2944980736.0
abag16
(g17
g18
Ntp421
Rp422
(lp423
g16
(g22
g18
Ntp424
Rp425
(lp426
I3217
ag16
(g26
g18
Ntp427
Rp428
(lp429
I1350917652
aI506099116
abaS'ardrone_base_link'
p430
abaF84.0
aI3
aI9
aI-127
aI165
aI101973
aI396
aF0.07866384088993073
aF84.90364837646484
aF0.0
aF0.05999999865889549
aF-0.15399999916553497
aF1.9850000143051147
aI1113
aF10.76113510131836
aF-15.598670959472656
aF-0.0
aF0.050120651721954346
aF-0.004750228952616453
aF0.9261302351951599
aI0
a(ta(ta(ta(ta(ta(ta(taF2945045760.0
abag16
(g17
g18
Ntp431
Rp432
(lp433
g16
(g22
g18
Ntp434
Rp435
(lp436
I3218
ag16
(g26
g18
Ntp437
Rp438
(lp439
I1350917652
aI566048746
abaS'ardrone_base_link'
p440
abaF84.0
aI3
aI11
aI-125
aI161
aI101995
aI396
aF0.07875876873731613
aF84.74423217773438
aF0.0
aF0.029999999329447746
aF-0.17800000309944153
aF1.8480000495910645
aI1156
aF7.990178108215332
aF-19.914888381958008
aF-0.0
aF0.05081367492675781
aF-0.007448262069374323
aF0.8957479596138
aI0
a(ta(ta(ta(ta(ta(ta(taF2945110784.0
abag16
(g17
g18
Ntp441
Rp442
(lp443
g16
(g22
g18
Ntp444
Rp445
(lp446
I3219
ag16
(g26
g18
Ntp447
Rp448
(lp449
I1350917652
aI628738635
abaS'ardrone_base_link'
p450
abaF84.0
aI3
aI6
aI-120
aI162
aI101973
aI396
aF0.07884562015533447
aF84.55085754394531
aF0.0
aF-0.009999999776482582
aF-0.18400000035762787
aF1.7139999866485596
aI1199
aF9.762415885925293
aF-23.4592342376709
aF-0.0
aF0.0458352230489254
aF-0.008511384017765522
aF0.8581712245941162
aI0
a(ta(ta(ta(ta(ta(ta(taF2945175808.0
abag16
(g17
g18
Ntp451
Rp452
(lp453
g16
(g22
g18
Ntp454
Rp455
(lp456
I3220
ag16
(g26
g18
Ntp457
Rp458
(lp459
I1350917652
aI689868568
abaS'ardrone_base_link'
p460
abaF84.0
aI3
aI8
aI-126
aI162
aI101979
aI396
aF0.07904592156410217
aF84.35782623291016
aF0.0
aF-0.035999998450279236
aF-0.18400000035762787
aF1.6139999628067017
aI1239
aF13.492364883422852
aF-26.546722412109375
aF-0.0
aF0.04373994097113609
aF-0.006849146448075771
aF0.847557008266449
aI0
a(ta(ta(ta(ta(ta(ta(taF2945240832.0
abag16
(g17
g18
Ntp461
Rp462
(lp463
g16
(g22
g18
Ntp464
Rp465
(lp466
I3221
ag16
(g26
g18
Ntp467
Rp468
(lp469
I1350917652
aI766070806
abaS'ardrone_base_link'
p470
abaF84.0
aI3
aI5
aI-121
aI161
aI101985
aI396
aF0.07968505471944809
aF84.5047607421875
aF0.0
aF-0.003000000026077032
aF-0.1679999977350235
aF1.5099999904632568
aI1274
aF12.269277572631836
aF-31.370342254638672
aF-0.0
aF0.0422607846558094
aF-0.01243604440242052
aF0.8050270676612854
aI0
a(ta(ta(ta(ta(ta(ta(taF2945305856.0
abag16
(g17
g18
Ntp471
Rp472
(lp473
g16
(g22
g18
Ntp474
Rp475
(lp476
I3222
ag16
(g26
g18
Ntp477
Rp478
(lp479
I1350917652
aI809946590
abaS'ardrone_base_link'
p480
abaF84.0
aI3
aI8
aI-126
aI158
aI101960
aI396
aF0.08001188188791275
aF85.21636199951172
aF0.0
aF-0.01600000075995922
aF-0.23499999940395355
aF1.4199999570846558
aI1297
aF14.3385648727417
aF-32.78063201904297
aF-0.0
aF0.04145682603120804
aF-0.0067901029251515865
aF0.6690755486488342
aI0
a(ta(ta(ta(ta(ta(ta(taF2945371136.0
abag16
(g17
g18
Ntp481
Rp482
(lp483
g16
(g22
g18
Ntp484
Rp485
(lp486
I3223
ag16
(g26
g18
Ntp487
Rp488
(lp489
I1350917652
aI932583116
abaS'ardrone_base_link'
p490
abaF84.0
aI3
aI11
aI-127
aI165
aI101979
aI396
aF0.08025561273097992
aF86.0168685913086
aF0.0
aF-0.04100000113248825
aF-0.1899999976158142
aF1.3359999656677246
aI1319
aF10.487399101257324
aF-27.038442611694336
aF-0.0
aF0.03104456700384617
aF-0.012668408453464508
aF0.8561776280403137
aI0
a(ta(ta(ta(ta(ta(ta(taF2946533120.0
abag16
(g17
g18
Ntp491
Rp492
(lp493
g16
(g22
g18
Ntp494
Rp495
(lp496
I3224
ag16
(g26
g18
Ntp497
Rp498
(lp499
I1350917652
aI986077060
abaS'ardrone_base_link'
p500
abaF84.0
aI3
aI6
aI-124
aI166
aI101969
aI396
aF0.0804244726896286
aF86.19355010986328
aF0.0
aF-0.04899999871850014
aF-0.24799999594688416
aF1.253000020980835
aI1331
aF12.903261184692383
aF-25.03023338317871
aF-0.0
aF0.04026930779218674
aF-0.008702966384589672
aF0.8934718370437622
aI0
a(ta(ta(ta(ta(ta(ta(taF2946598144.0
abag16
(g17
g18
Ntp501
Rp502
(lp503
g16
(g22
g18
Ntp504
Rp505
(lp506
I3225
ag16
(g26
g18
Ntp507
Rp508
(lp509
I1350917653
aI42619739
abaS'ardrone_base_link'
p510
abaF84.0
aI3
aI11
aI-123
aI159
aI101966
aI396
aF0.08101723343133926
aF83.59808349609375
aF0.0
aF-0.0430000014603138
aF-0.24199999868869781
aF1.1859999895095825
aI1344
aF17.94501304626465
aF-20.306529998779297
aF-0.0
aF0.09121094644069672
aF-0.013465684838593006
aF0.9227842688560486
aI0
a(ta(ta(ta(ta(ta(ta(taF2946663424.0
abag16
(g17
g18
Ntp511
Rp512
(lp513
g16
(g22
g18
Ntp514
Rp515
(lp516
I3226
ag16
(g26
g18
Ntp517
Rp518
(lp519
I1350917653
aI146115860
abaS'ardrone_base_link'
p520
abaF84.0
aI3
aI9
aI-121
aI159
aI101969
aI396
aF0.08175244927406311
aF80.74720764160156
aF0.0
aF-0.019999999552965164
aF-0.3529999852180481
aF1.1089999675750732
aI1355
aF27.627288818359375
aF-18.586318969726562
aF-0.0
aF0.07246045768260956
aF-0.005704626906663179
aF0.9330131411552429
aI0
a(ta(ta(ta(ta(ta(ta(taF2946728448.0
abag16
(g17
g18
Ntp521
Rp522
(lp523
g16
(g22
g18
Ntp524
Rp525
(lp526
I3227
ag16
(g26
g18
Ntp527
Rp528
(lp529
I1350917653
aI188762399
abaS'ardrone_base_link'
p530
abaF84.0
aI3
aI6
aI-122
aI166
aI101982
aI396
aF0.08255607634782791
aF79.13057708740234
aF0.0
aF0.010999999940395355
aF-0.4059999883174896
aF1.0440000295639038
aI1361
aF4.631940841674805
aF-19.660728454589844
aF-0.0
aF0.05708710476756096
aF-0.01390424370765686
aF0.9465358257293701
aI0
a(ta(ta(ta(ta(ta(ta(taF2946793216.0
abag16
(g17
g18
Ntp531
Rp532
(lp533
g16
(g22
g18
Ntp534
Rp535
(lp536
I3228
ag16
(g26
g18
Ntp537
Rp538
(lp539
I1350917653
aI250639434
abaS'ardrone_base_link'
p540
abaF84.0
aI3
aI5
aI-125
aI167
aI101973
aI396
aF0.08305645734071732
aF78.8528060913086
aF0.0
aF0.04800000041723251
aF-0.3400000035762787
aF1.0140000581741333
aI1367
aF2.5079822540283203
aF-17.390789031982422
aF-0.0
aF0.04805220291018486
aF-0.01387914177030325
aF0.9448100924491882
aI0
a(ta(ta(ta(ta(ta(ta(taF2946858240.0
abag16
(g17
g18
Ntp541
Rp542
(lp543
g16
(g22
g18
Ntp544
Rp545
(lp546
I3229
ag16
(g26
g18
Ntp547
Rp548
(lp549
I1350917653
aI288925654
abaS'ardrone_base_link'
p550
abaF84.0
aI3
aI10
aI-120
aI160
aI101963
aI396
aF0.08273964375257492
aF80.92448425292969
aF0.0
aF0.10199999809265137
aF-0.27799999713897705
aF0.9819999933242798
aI1368
aF-4.144354343414307
aF-15.27908706665039
aF-0.0
aF-0.003792097792029381
aF-0.007456197869032621
aF0.953046441078186
aI0
a(ta(ta(ta(ta(ta(ta(taF2946923264.0
abag16
(g17
g18
Ntp551
Rp552
(lp553
g16
(g22
g18
Ntp554
Rp555
(lp556
I3230
ag16
(g26
g18
Ntp557
Rp558
(lp559
I1350917653
aI346073399
abaS'ardrone_base_link'
p560
abaF84.0
aI3
aI6
aI-126
aI162
aI101966
aI396
aF0.08268444240093231
aF84.36962127685547
aF0.0
aF0.14100000262260437
aF-0.2840000092983246
aF0.9359999895095825
aI1368
aF-10.819361686706543
aF-19.52322006225586
aF-0.0
aF0.014841148629784584
aF-0.006794726941734552
aF0.9652401208877563
aI0
a(ta(ta(ta(ta(ta(ta(taF2946988288.0
abag16
(g17
g18
Ntp561
Rp562
(lp563
g16
(g22
g18
Ntp564
Rp565
(lp566
I3231
ag16
(g26
g18
Ntp567
Rp568
(lp569
I1350917653
aI406077147
abaS'ardrone_base_link'
p570
abaF84.0
aI3
aI10
aI-130
aI166
aI101979
aI396
aF0.0827474296092987
aF85.42704010009766
aF0.0
aF0.0989999994635582
aF-0.24899999797344208
aF0.9160000085830688
aI1367
aF-6.992798805236816
aF-23.549192428588867
aF-0.0
aF0.05667555704712868
aF-0.005428156815469265
aF0.9678476452827454
aI0
a(ta(ta(ta(ta(ta(ta(taF2947053312.0
abag16
(g17
g18
Ntp571
Rp572
(lp573
g16
(g22
g18
Ntp574
Rp575
(lp576
I3232
ag16
(g26
g18
Ntp577
Rp578
(lp579
I1350917653
aI512399683
abaS'ardrone_base_link'
p580
abaF84.0
aI3
aI7
aI-127
aI167
aI101963
aI396
aF0.08298882097005844
aF84.72940826416016
aF0.0
aF0.08500000089406967
aF-0.21199999749660492
aF0.8889999985694885
aI1365
aF10.827899932861328
aF-15.490391731262207
aF-0.0
aF0.05632900074124336
aF-0.01015303935855627
aF0.9694478511810303
aI0
a(ta(ta(ta(ta(ta(ta(taF2947118336.0
abag16
(g17
g18
Ntp581
Rp582
(lp583
g16
(g22
g18
Ntp584
Rp585
(lp586
I3233
ag16
(g26
g18
Ntp587
Rp588
(lp589
I1350917653
aI548721055
abaS'ardrone_base_link'
p590
abaF84.0
aI3
aI5
aI-127
aI161
aI101969
aI396
aF0.0834227129817009
aF84.37348937988281
aF0.0
aF0.11599999666213989
aF-0.21699999272823334
aF0.875
aI1364
aF3.852173089981079
aF-15.376260757446289
aF-0.0
aF0.049062151461839676
aF-0.006582191213965416
aF0.9578874111175537
aI0
a(ta(ta(ta(ta(ta(ta(taF2947183616.0
abag16
(g17
g18
Ntp591
Rp592
(lp593
g16
(g22
g18
Ntp594
Rp595
(lp596
I3234
ag16
(g26
g18
Ntp597
Rp598
(lp599
I1350917653
aI628744154
abaS'ardrone_base_link'
p600
abaF84.0
aI3
aI2
aI-122
aI160
aI101985
aI396
aF0.08341560512781143
aF83.5956039428711
aF0.0
aF0.10599999874830246
aF-0.1770000010728836
aF0.859000027179718
aI1363
aF3.890369415283203
aF-9.619850158691406
aF-0.0
aF0.05494708940386772
aF-0.008294493891298771
aF0.940276563167572
aI0
a(ta(ta(ta(ta(ta(ta(taF2947248640.0
abag16
(g17
g18
Ntp601
Rp602
(lp603
g16
(g22
g18
Ntp604
Rp605
(lp606
I3235
ag16
(g26
g18
Ntp607
Rp608
(lp609
I1350917653
aI728891969
abaS'ardrone_base_link'
p610
abaF84.0
aI3
aI10
aI-126
aI160
aI101966
aI396
aF0.08419888466596603
aF83.0283203125
aF0.0
aF0.10100000351667404
aF-0.18000000715255737
aF0.8640000224113464
aI1361
aF1.9967697858810425
aF-20.655733108520508
aF-0.0
aF0.05891253426671028
aF-0.0058761113323271275
aF0.9393507838249207
aI0
a(ta(ta(ta(ta(ta(ta(taF2947313408.0
abag16
(g17
g18
Ntp611
Rp612
(lp613
g16
(g22
g18
Ntp614
Rp615
(lp616
I3236
ag16
(g26
g18
Ntp617
Rp618
(lp619
I1350917653
aI746060427
abaS'ardrone_base_link'
p620
abaF84.0
aI3
aI4
aI-126
aI162
aI101966
aI396
aF0.08499906212091446
aF82.25177001953125
aF0.0
aF0.07100000232458115
aF-0.16699999570846558
aF0.8119999766349792
aI1362
aF2.374584436416626
aF-27.026418685913086
aF-0.0
aF0.05900587886571884
aF-0.0037101779598742723
aF0.9623424410820007
aI0
a(ta(ta(ta(ta(ta(ta(taF2947378688.0
abag16
(g17
g18
Ntp621
Rp622
(lp623
g16
(g22
g18
Ntp624
Rp625
(lp626
I3237
ag16
(g26
g18
Ntp627
Rp628
(lp629
I1350917653
aI832279379
abaS'ardrone_base_link'
p630
abaF84.0
aI3
aI12
aI-124
aI162
aI101973
aI396
aF0.08543180674314499
aF81.47178649902344
aF0.0
aF0.026000000536441803
aF-0.1459999978542328
aF0.8019999861717224
aI1362
aF1.865785002708435
aF-30.813873291015625
aF-0.0
aF0.050250399857759476
aF-0.009673026390373707
aF0.9886042475700378
aI0
a(ta(ta(ta(ta(ta(ta(taF2947443712.0
abag16
(g17
g18
Ntp631
Rp632
(lp633
g16
(g22
g18
Ntp634
Rp635
(lp636
I3238
ag16
(g26
g18
Ntp637
Rp638
(lp639
I1350917653
aI878761680
abaS'ardrone_base_link'
p640
abaF84.0
aI3
aI3
aI-127
aI163
aI101973
aI396
aF0.08518766611814499
aF80.93102264404297
aF0.0
aF0.007000000216066837
aF-0.0860000029206276
aF0.7730000019073486
aI1366
aF0.10657919943332672
aF-28.395641326904297
aF-0.0
aF0.05492851883172989
aF-0.007211106363683939
aF0.9946978092193604
aI0
a(ta(ta(ta(ta(ta(ta(taF2948605952.0
abag16
(g17
g18
Ntp641
Rp642
(lp643
g16
(g22
g18
Ntp644
Rp645
(lp646
I3239
ag16
(g26
g18
Ntp647
Rp648
(lp649
I1350917653
aI926058809
abaS'ardrone_base_link'
p650
abaF84.0
aI3
aI5
aI-123
aI165
aI101969
aI396
aF0.08588890731334686
aF80.56063842773438
aF0.0
aF0.014000000432133675
aF-0.06199999898672104
aF0.7639999985694885
aI1374
aF2.1801390647888184
aF-37.055110931396484
aF-0.0
aF0.05125145614147186
aF-0.00787679385393858
aF1.003669023513794
aI0
a(ta(ta(ta(ta(ta(ta(taF2948670720.0
abag16
(g17
g18
Ntp651
Rp652
(lp653
g16
(g22
g18
Ntp654
Rp655
(lp656
I3240
ag16
(g26
g18
Ntp657
Rp658
(lp659
I1350917654
aI26102896
abaS'ardrone_base_link'
p660
abaF84.0
aI3
aI4
aI-126
aI166
aI101973
aI396
aF0.08618807792663574
aF80.23429870605469
aF0.0
aF0.0020000000949949026
aF-0.026000000536441803
aF0.7360000014305115
aI1377
aF4.5013322830200195
aF-35.252708435058594
aF-0.0
aF0.050459664314985275
aF-0.01025969535112381
aF0.9739803671836853
aI0
a(ta(ta(ta(ta(ta(ta(taF2948735744.0
abag16
(g17
g18
Ntp661
Rp662
(lp663
g16
(g22
g18
Ntp664
Rp665
(lp666
I3241
ag16
(g26
g18
Ntp667
Rp668
(lp669
I1350917654
aI111660370
abaS'ardrone_base_link'
p670
abaF84.0
aI3
aI8
aI-126
aI168
aI101966
aI396
aF0.08712059259414673
aF79.94869232177734
aF0.0
aF0.052000001072883606
aF0.008999999612569809
aF0.7269999980926514
aI1382
aF7.846285820007324
aF-40.5406608581543
aF-0.0
aF0.053382277488708496
aF-0.005796405952423811
aF0.9705086946487427
aI0
a(ta(ta(ta(ta(ta(ta(taF2948801024.0
abag16
(g17
g18
Ntp671
Rp672
(lp673
g16
(g22
g18
Ntp674
Rp675
(lp676
I3242
ag16
(g26
g18
Ntp677
Rp678
(lp679
I1350917654
aI126035965
abaS'ardrone_base_link'
p680
abaF84.0
aI3
aI13
aI-125
aI167
aI101969
aI396
aF0.08731839060783386
aF79.29981231689453
aF0.0
aF0.03700000047683716
aF0.03799999877810478
aF0.6809999942779541
aI1386
aF13.49250602722168
aF-36.691280364990234
aF-0.0
aF0.05209894850850105
aF-0.0037698529195040464
aF0.971351146697998
aI0
a(ta(ta(ta(ta(ta(ta(taF2948866048.0
abag16
(g17
g18
Ntp681
Rp682
(lp683
g16
(g22
g18
Ntp684
Rp685
(lp686
I3243
ag16
(g26
g18
Ntp687
Rp688
(lp689
I1350917654
aI192078294
abaS'ardrone_base_link'
p690
abaF84.0
aI3
aI11
aI-129
aI163
aI101973
aI396
aF0.08790747821331024
aF79.08631134033203
aF0.0
aF-0.0020000000949949026
aF0.04800000041723251
aF0.6489999890327454
aI1390
aF6.633832931518555
aF-40.957542419433594
aF-0.0
aF0.05556157976388931
aF-0.009768515825271606
aF0.977420449256897
aI0
a(ta(ta(ta(ta(ta(ta(taF2948931072.0
abag16
(g17
g18
Ntp691
Rp692
(lp693
g16
(g22
g18
Ntp694
Rp695
(lp696
I3244
ag16
(g26
g18
Ntp697
Rp698
(lp699
I1350917654
aI249601558
abaS'ardrone_base_link'
p700
abaF84.0
aI3
aI10
aI-130
aI168
aI101963
aI396
aF0.08761411160230637
aF78.62828826904297
aF0.0
aF-0.020999999716877937
aF0.041999999433755875
aF0.6010000109672546
aI1399
aF4.177310943603516
aF-29.487932205200195
aF-0.0
aF0.04804231971502304
aF-0.0011307024396955967
aF0.9652801752090454
aI0
a(ta(ta(ta(ta(ta(ta(taF2948996352.0
abag16
(g17
g18
Ntp701
Rp702
(lp703
g16
(g22
g18
Ntp704
Rp705
(lp706
I3245
ag16
(g26
g18
Ntp707
Rp708
(lp709
I1350917654
aI326112116
abaS'ardrone_base_link'
p710
abaF84.0
aI3
aI5
aI-127
aI161
aI101979
aI396
aF0.08736680448055267
aF78.06415557861328
aF0.0
aF-0.0020000000949949026
aF0.04899999871850014
aF0.5789999961853027
aI1404
aF11.072948455810547
aF-27.870525360107422
aF-0.0
aF0.04817715287208557
aF-0.00839176494628191
aF0.9471835494041443
aI0
a(ta(ta(ta(ta(ta(ta(taF2949061120.0
abag16
(g17
g18
Ntp711
Rp712
(lp713
g16
(g22
g18
Ntp714
Rp715
(lp716
I3246
ag16
(g26
g18
Ntp717
Rp718
(lp719
I1350917654
aI408772204
abaS'ardrone_base_link'
p720
abaF84.0
aI3
aI1
aI-129
aI165
aI101957
aI396
aF0.08732129633426666
aF77.40629577636719
aF0.0
aF0.027000000700354576
aF0.01600000075995922
aF0.5649999976158142
aI1415
aF21.63547134399414
aF-23.56402587890625
aF-0.0
aF0.045143064111471176
aF-0.008866868913173676
aF0.9187630414962769
aI0
a(ta(ta(ta(ta(ta(ta(taF2949126144.0
abag16
(g17
g18
Ntp721
Rp722
(lp723
g16
(g22
g18
Ntp724
Rp725
(lp726
I3247
ag16
(g26
g18
Ntp727
Rp728
(lp729
I1350917654
aI446081108
abaS'ardrone_base_link'
p730
abaF84.0
aI3
aI11
aI-125
aI165
aI101969
aI396
aF0.08775941282510757
aF77.04338073730469
aF0.0
aF0.057999998331069946
aF-0.041999999433755875
aF0.5440000295639038
aI1421
aF24.901134490966797
aF-25.709369659423828
aF-0.0
aF0.0558864064514637
aF-0.00813591293990612
aF0.9163582921028137
aI0
a(ta(ta(ta(ta(ta(ta(taF2949191424.0
abag16
(g17
g18
Ntp731
Rp732
(lp733
g16
(g22
g18
Ntp734
Rp735
(lp736
I3248
ag16
(g26
g18
Ntp737
Rp738
(lp739
I1350917654
aI506099559
abaS'ardrone_base_link'
p740
abaF84.0
aI3
aI7
aI-123
aI165
aI101970
aI397
aF0.08786145597696304
aF76.77046203613281
aF0.0
aF0.0560000017285347
aF-0.08399999886751175
aF0.5289999842643738
aI1429
aF25.108051300048828
aF-28.86861801147461
aF-0.0
aF0.053929299116134644
aF-0.012292628176510334
aF0.9468998312950134
aI0
a(ta(ta(ta(ta(ta(ta(taF2949256192.0
abag16
(g17
g18
Ntp741
Rp742
(lp743
g16
(g22
g18
Ntp744
Rp745
(lp746
I3249
ag16
(g26
g18
Ntp747
Rp748
(lp749
I1350917654
aI636911058
abaS'ardrone_base_link'
p750
abaF84.0
aI3
aI7
aI-133
aI161
aI101979
aI396
aF0.08922164142131805
aF73.73274993896484
aF0.0
aF0.09000000357627869
aF-0.11900000274181366
aF0.5080000162124634
aI1445
aF29.406259536743164
aF-31.988733291625977
aF-0.0
aF0.0714062824845314
aF-0.005107003729790449
aF0.9762781262397766
aI0
a(ta(ta(ta(ta(ta(ta(taF2949386752.0
abag16
(g17
g18
Ntp751
Rp752
(lp753
g16
(g22
g18
Ntp754
Rp755
(lp756
I3250
ag16
(g26
g18
Ntp757
Rp758
(lp759
I1350917654
aI731909163
abaS'ardrone_base_link'
p760
abaF84.0
aI3
aI11
aI-129
aI161
aI101960
aI396
aF0.09037190675735474
aF71.39666748046875
aF0.0
aF0.17299999296665192
aF-0.11599999666213989
aF0.4830000102519989
aI1453
aF21.019821166992188
aF-35.48337173461914
aF-0.0
aF0.06389494240283966
aF-0.011468498967587948
aF0.9835528135299683
aI0
a(ta(ta(ta(ta(ta(ta(taF2949451264.0
abag16
(g17
g18
Ntp761
Rp762
(lp763
g16
(g22
g18
Ntp764
Rp765
(lp766
I3251
ag16
(g26
g18
Ntp767
Rp768
(lp769
I1350917654
aI812628923
abaS'ardrone_base_link'
p770
abaF84.0
aI3
aI7
aI-123
aI165
aI101979
aI396
aF0.09106738865375519
aF70.72722625732422
aF0.0
aF0.16899999976158142
aF-0.10700000077486038
aF0.47099998593330383
aI1460
aF17.794902801513672
aF-35.842552185058594
aF-0.0
aF0.04574811831116676
aF-0.008935402147471905
aF0.9740273356437683
aI0
a(ta(ta(ta(ta(ta(ta(taF2949516288.0
abag16
(g17
g18
Ntp771
Rp772
(lp773
g16
(g22
g18
Ntp774
Rp775
(lp776
I3252
ag16
(g26
g18
Ntp777
Rp778
(lp779
I1350917654
aI866072098
abaS'ardrone_base_link'
p780
abaF84.0
aI3
aI6
aI-126
aI164
aI101957
aI396
aF0.09121021628379822
aF71.04106140136719
aF0.0
aF0.11400000005960464
aF-0.08500000089406967
aF0.46399998664855957
aI1465
aF28.26471519470215
aF-42.13123321533203
aF-0.0
aF0.031354885548353195
aF-0.007887049578130245
aF0.9767577648162842
aI0
a(ta(ta(ta(ta(ta(ta(taF2949581312.0
abag16
(g17
g18
Ntp781
Rp782
(lp783
g16
(g22
g18
Ntp784
Rp785
(lp786
I3253
ag16
(g26
g18
Ntp787
Rp788
(lp789
I1350917654
aI899828067
abaS'ardrone_base_link'
p790
abaF84.0
aI3
aI6
aI-120
aI164
aI101963
aI396
aF0.09103980660438538
aF71.9387435913086
aF0.0
aF0.09399999678134918
aF-0.11299999803304672
aF0.4779999852180481
aI1472
aF20.651569366455078
aF-40.03668212890625
aF-0.0
aF0.04146377742290497
aF-0.006914095021784306
aF0.972152054309845
aI0
a(ta(ta(ta(ta(ta(ta(taF2950743552.0
abag16
(g17
g18
Ntp791
Rp792
(lp793
g16
(g22
g18
Ntp794
Rp795
(lp796
I3254
ag16
(g26
g18
Ntp797
Rp798
(lp799
I1350917654
aI966729893
abaS'ardrone_base_link'
p800
abaF84.0
aI3
aI4
aI-120
aI166
aI101960
aI396
aF0.09159308671951294
aF71.9371337890625
aF0.0
aF0.04899999871850014
aF-0.1120000034570694
aF0.460999995470047
aI1480
aF21.548372268676758
aF-38.09486389160156
aF-0.0
aF0.03982483968138695
aF-0.011107084341347218
aF0.9649549126625061
aI0
a(ta(ta(ta(ta(ta(ta(taF2950808576.0
abag16
(g17
g18
Ntp801
Rp802
(lp803
g16
(g22
g18
Ntp804
Rp805
(lp806
I3255
ag16
(g26
g18
Ntp807
Rp808
(lp809
I1350917655
aI26104218
abaS'ardrone_base_link'
p810
abaF84.0
aI3
aI7
aI-119
aI167
aI101969
aI396
aF0.0919114500284195
aF71.92094421386719
aF0.0
aF0.06199999898672104
aF-0.0430000014603138
aF0.42399999499320984
aI1485
aF22.63458251953125
aF-35.377113342285156
aF-0.0
aF0.049100153148174286
aF-0.0048502227291464806
aF0.9611647725105286
aI0
a(ta(ta(ta(ta(ta(ta(taF2950873600.0
abag16
(g17
g18
Ntp811
Rp812
(lp813
g16
(g22
g18
Ntp814
Rp815
(lp816
I3256
ag16
(g26
g18
Ntp817
Rp818
(lp819
I1350917655
aI126100737
abaS'ardrone_base_link'
p820
abaF84.0
aI3
aI16
aI-130
aI166
aI101970
aI397
aF0.0927710011601448
aF71.93879699707031
aF0.0
aF0.057999998331069946
aF-0.02199999988079071
aF0.4320000112056732
aI1487
aF18.382160186767578
aF-38.65667724609375
aF-0.0
aF0.05022388696670532
aF-0.007758643478155136
aF0.9454734921455383
aI0
a(ta(ta(ta(ta(ta(ta(taF2950939136.0
abag16
(g17
g18
Ntp821
Rp822
(lp823
g16
(g22
g18
Ntp824
Rp825
(lp826
I3257
ag16
(g26
g18
Ntp827
Rp828
(lp829
I1350917655
aI168811703
abaS'ardrone_base_link'
p830
abaF84.0
aI3
aI4
aI-130
aI162
aI101973
aI396
aF0.09305955469608307
aF71.92160034179688
aF0.0
aF0.019999999552965164
aF-0.010999999940395355
aF0.4480000138282776
aI1491
aF14.581279754638672
aF-31.487598419189453
aF-0.0
aF0.04734782129526138
aF-0.010433199815452099
aF0.9462703466415405
aI0
a(ta(ta(ta(ta(ta(ta(taF2951003648.0
abag16
(g17
g18
Ntp831
Rp832
(lp833
g16
(g22
g18
Ntp834
Rp835
(lp836
I3258
ag16
(g26
g18
Ntp837
Rp838
(lp839
I1350917655
aI226053388
abaS'ardrone_base_link'
p840
abaF84.0
aI3
aI10
aI-124
aI170
aI101969
aI396
aF0.09390471875667572
aF71.747802734375
aF0.0
aF0.02500000037252903
aF-0.017000000923871994
aF0.453000009059906
aI1493
aF18.040842056274414
aF-37.04594421386719
aF-0.0
aF0.04617539793252945
aF-0.00986174214631319
aF0.9580004811286926
aI0
a(ta(ta(ta(ta(ta(ta(taF2951068672.0
abag16
(g17
g18
Ntp841
Rp842
(lp843
g16
(g22
g18
Ntp844
Rp845
(lp846
I3259
ag16
(g26
g18
Ntp847
Rp848
(lp849
I1350917655
aI306050143
abaS'ardrone_base_link'
p850
abaF84.0
aI3
aI8
aI-122
aI166
aI101966
aI396
aF0.09421393275260925
aF71.33274841308594
aF0.0
aF0.014999999664723873
aF-0.03099999949336052
aF0.4560000002384186
aI1501
aF21.31144142150879
aF-28.58443260192871
aF-0.0
aF0.050199948251247406
aF-0.0031364080496132374
aF0.9517137408256531
aI0
a(ta(ta(ta(ta(ta(ta(taF2951133696.0
abag16
(g17
g18
Ntp851
Rp852
(lp853
g16
(g22
g18
Ntp854
Rp855
(lp856
I3260
ag16
(g26
g18
Ntp857
Rp858
(lp859
I1350917655
aI372100575
abaS'ardrone_base_link'
p860
abaF84.0
aI3
aI7
aI-121
aI159
aI101966
aI396
aF0.09451351314783096
aF71.51834869384766
aF0.0
aF0.0860000029206276
aF-0.010999999940395355
aF0.46399998664855957
aI1503
aF17.55608367919922
aF-27.356122970581055
aF-0.0
aF0.04586080461740494
aF-0.006784026976674795
aF0.9472172856330872
aI0
a(ta(ta(ta(ta(ta(ta(taF2951198720.0
abag16
(g17
g18
Ntp861
Rp862
(lp863
g16
(g22
g18
Ntp864
Rp865
(lp866
I3261
ag16
(g26
g18
Ntp867
Rp868
(lp869
I1350917655
aI466814649
abaS'ardrone_base_link'
p870
abaF84.0
aI3
aI8
aI-126
aI162
aI101979
aI396
aF0.09552204608917236
aF71.51554870605469
aF0.0
aF0.15399999916553497
aF0.020999999716877937
aF0.4690000116825104
aI1504
aF18.070451736450195
aF-37.55125427246094
aF-0.0
aF0.047619011253118515
aF-0.010742666199803352
aF0.9500295519828796
aI0
a(ta(ta(ta(ta(ta(ta(taF2951263744.0
abag16
(g17
g18
Ntp871
Rp872
(lp873
g16
(g22
g18
Ntp874
Rp875
(lp876
I3262
ag16
(g26
g18
Ntp877
Rp878
(lp879
I1350917655
aI486038150
abaS'ardrone_base_link'
p880
abaF84.0
aI3
aI5
aI-123
aI161
aI101960
aI396
aF0.09628906100988388
aF71.46282958984375
aF0.0
aF0.1850000023841858
aF0.06400000303983688
aF0.4790000021457672
aI1505
aF20.62310028076172
aF-35.38419723510742
aF-0.0
aF0.049665823578834534
aF-0.011261804960668087
aF0.9542034268379211
aI0
a(ta(ta(ta(ta(ta(ta(taF2951329024.0
abag16
(g17
g18
Ntp881
Rp882
(lp883
g16
(g22
g18
Ntp884
Rp885
(lp886
I3263
ag16
(g26
g18
Ntp887
Rp888
(lp889
I1350917655
aI566056102
abaS'ardrone_base_link'
p890
abaF84.0
aI3
aI3
aI-123
aI167
aI101960
aI396
aF0.09744976460933685
aF71.51518249511719
aF0.0
aF0.11900000274181366
aF0.03500000014901161
aF0.4869999885559082
aI1506
aF25.189489364624023
aF-41.418128967285156
aF-0.0
aF0.04704388231039047
aF-0.014819666743278503
aF0.9626057744026184
aI0
a(ta(ta(ta(ta(ta(ta(taF2951393792.0
abag16
(g17
g18
Ntp891
Rp892
(lp893
g16
(g22
g18
Ntp894
Rp895
(lp896
I3264
ag16
(g26
g18
Ntp897
Rp898
(lp899
I1350917655
aI650130443
abaS'ardrone_base_link'
p900
abaF84.0
aI3
aI7
aI-123
aI161
aI101979
aI397
aF0.09848733991384506
aF70.9879150390625
aF0.0
aF0.13099999725818634
aF-0.22599999606609344
aF0.47099998593330383
aI1517
aF36.11160659790039
aF-45.77350616455078
aF-0.0
aF0.05553112551569939
aF-0.011310490779578686
aF0.9536423683166504
aI0
a(ta(ta(ta(ta(ta(ta(taF2951459072.0
abag16
(g17
g18
Ntp901
Rp902
(lp903
g16
(g22
g18
Ntp904
Rp905
(lp906
I3265
ag16
(g26
g18
Ntp907
Rp908
(lp909
I1350917655
aI686147957
abaS'ardrone_base_link'
p910
abaF84.0
aI3
aI4
aI-120
aI162
aI101954
aI396
aF0.09802975505590439
aF70.33863830566406
aF0.0
aF0.10700000077486038
aF-1.8009999990463257
aF0.45500001311302185
aI1540
aF24.801132202148438
aF-22.153152465820312
aF-0.0
aF0.04660777375102043
aF-0.011656830087304115
aF0.9282354116439819
aI0
a(ta(ta(ta(ta(ta(ta(taF2951524096.0
abag16
(g17
g18
Ntp911
Rp912
(lp913
g16
(g22
g18
Ntp914
Rp915
(lp916
I3266
ag16
(g26
g18
Ntp917
Rp918
(lp919
I1350917655
aI768751029
abaS'ardrone_base_link'
p920
abaF84.0
aI3
aI6
aI-112
aI162
aI101966
aI396
aF0.0977582186460495
aF70.44314575195312
aF0.0
aF0.017000000923871994
aF-4.320000171661377
aF0.44999998807907104
aI1544
aF4.392168998718262
aF-8.450773239135742
aF-0.0
aF0.040529944002628326
aF-0.015628555789589882
aF0.9259387254714966
aI0
a(ta(ta(ta(ta(ta(ta(taF2951589120.0
abag16
(g17
g18
Ntp921
Rp922
(lp923
g16
(g22
g18
Ntp924
Rp925
(lp926
I3267
ag16
(g26
g18
Ntp927
Rp928
(lp929
I1350917655
aI806073761
abaS'ardrone_base_link'
p930
abaF84.0
aI3
aI5
aI-111
aI157
aI101960
aI396
aF0.09736986458301544
aF70.4825210571289
aF0.0
aF-0.039000000804662704
aF-6.973999977111816
aF0.4699999988079071
aI1546
aF-39.82313919067383
aF11.923489570617676
aF-0.0
aF0.04214364290237427
aF-0.020002078264951706
aF0.9342076778411865
aI0
a(ta(ta(ta(ta(ta(ta(taF2951654144.0
abag16
(g17
g18
Ntp931
Rp932
(lp933
g16
(g22
g18
Ntp934
Rp935
(lp936
I3268
ag16
(g26
g18
Ntp937
Rp938
(lp939
I1350917655
aI872112734
abaS'ardrone_base_link'
p940
abaF84.0
aI3
aI3
aI-107
aI155
aI101966
aI397
aF0.09670630842447281
aF71.01809692382812
aF0.0
aF-0.013000000268220901
aF-9.024999618530273
aF0.4490000009536743
aI1550
aF-139.2922821044922
aF13.398200035095215
aF-0.0
aF0.04998370260000229
aF-0.010997266508638859
aF0.9439024925231934
aI0
a(ta(ta(ta(ta(ta(ta(taF2952816128.0
abag16
(g17
g18
Ntp941
Rp942
(lp943
g16
(g22
g18
Ntp944
Rp945
(lp946
I3269
ag16
(g26
g18
Ntp947
Rp948
(lp949
I1350917655
aI946066326
abaS'ardrone_base_link'
p950
abaF84.0
aI3
aI7
aI-97
aI151
aI101966
aI396
aF0.09696841984987259
aF70.5865707397461
aF0.0
aF0.03400000184774399
aF-10.414999961853027
aF0.45100000500679016
aI1541
aF-204.16921997070312
aF6.236208438873291
aF-0.0
aF0.061942290514707565
aF-0.010644692927598953
aF0.9589803814888
aI0
a(ta(ta(ta(ta(ta(ta(taF2952881408.0
abag16
(g17
g18
Ntp951
Rp952
(lp953
g16
(g22
g18
Ntp954
Rp955
(lp956
I3270
ag16
(g26
g18
Ntp957
Rp958
(lp959
I1350917656
aI6053912
abaS'ardrone_base_link'
p960
abaF84.0
aI3
aI9
aI-91
aI149
aI101973
aI397
aF0.09713264554738998
aF71.05374145507812
aF0.0
aF0.10999999940395355
aF-11.095999717712402
aF0.4269999861717224
aI1535
aF-311.7626037597656
aF-5.940210819244385
aF-0.0
aF0.06470001488924026
aF-0.003847097512334585
aF0.961703360080719
aI0
a(ta(ta(ta(ta(ta(ta(taF2952946432.0
abag16
(g17
g18
Ntp961
Rp962
(lp963
g16
(g22
g18
Ntp964
Rp965
(lp966
I3271
ag16
(g26
g18
Ntp967
Rp968
(lp969
I1350917656
aI66990339
abaS'ardrone_base_link'
p970
abaF84.0
aI3
aI5
aI-95
aI157
aI101970
aI397
aF0.09744904190301895
aF72.60903930664062
aF0.0
aF0.1679999977350235
aF-11.319999694824219
aF0.4090000092983246
aI1529
aF-470.77606201171875
aF-25.949922561645508
aF-0.0
aF0.07095854729413986
aF-0.011671094223856926
aF0.9768214821815491
aI0
a(ta(ta(ta(ta(ta(ta(taF2953011456.0
abag16
(g17
g18
Ntp971
Rp972
(lp973
g16
(g22
g18
Ntp974
Rp975
(lp976
I3272
ag16
(g26
g18
Ntp977
Rp978
(lp979
I1350917656
aI166010337
abaS'ardrone_base_link'
p980
abaF84.0
aI3
aI2
aI-96
aI154
aI101966
aI396
aF0.09808878600597382
aF72.94156646728516
aF0.0
aF0.19499999284744263
aF-11.189000129699707
aF0.3970000147819519
aI1516
aF-554.073486328125
aF-38.8486328125
aF-0.0
aF0.08153755962848663
aF-0.006916946731507778
aF0.9934121966362
aI0
a(ta(ta(ta(ta(ta(ta(taF2953076480.0
abag16
(g17
g18
Ntp981
Rp982
(lp983
g16
(g22
g18
Ntp984
Rp985
(lp986
I3273
ag16
(g26
g18
Ntp987
Rp988
(lp989
I1350917656
aI206052921
abaS'ardrone_base_link'
p990
abaF84.0
aI3
aI4
aI-100
aI156
aI101979
aI397
aF0.09885639697313309
aF73.47029113769531
aF0.0
aF0.2619999945163727
aF-10.85099983215332
aF0.3720000088214874
aI1508
aF-653.67578125
aF-55.43265151977539
aF-0.0
aF0.09225627779960632
aF-0.01013948954641819
aF0.9870325922966003
aI0
a(ta(ta(ta(ta(ta(ta(taF2953141504.0
abag16
(g17
g18
Ntp991
Rp992
(lp993
g16
(g22
g18
Ntp994
Rp995
(lp996
I3274
ag16
(g26
g18
Ntp997
Rp998
(lp999
I1350917656
aI312132548
abaS'ardrone_base_link'
p1000
abaF84.0
aI3
aI6
aI-102
aI156
aI101989
aI397
aF0.09946544468402863
aF73.62328338623047
aF0.0
aF0.22699999809265137
aF-10.477999687194824
aF0.3529999852180481
aI1499
aF-739.9932250976562
aF-61.79139709472656
aF-0.0
aF0.0954580008983612
aF-0.013277042657136917
aF0.99881511926651
aI0
a(ta(ta(ta(ta(ta(ta(taF2953206528.0
abag16
(g17
g18
Ntp1001
Rp1002
(lp1003
g16
(g22
g18
Ntp1004
Rp1005
(lp1006
I3275
ag16
(g26
g18
Ntp1007
Rp1008
(lp1009
I1350917656
aI346154781
abaS'ardrone_base_link'
p1010
abaF84.0
aI3
aI6
aI-102
aI154
aI101960
aI397
aF0.10027071833610535
aF73.90315246582031
aF0.0
aF0.14499999582767487
aF-10.086000442504883
aF0.26499998569488525
aI1494
aF-828.5516357421875
aF-68.19971466064453
aF-0.0
aF0.10033392906188965
aF-0.007667494472116232
aF1.0074727535247803
aI0
a(ta(ta(ta(ta(ta(ta(taF2953271552.0
abag16
(g17
g18
Ntp1011
Rp1012
(lp1013
g16
(g22
g18
Ntp1014
Rp1015
(lp1016
I3276
ag16
(g26
g18
Ntp1017
Rp1018
(lp1019
I1350917656
aI398598637
abaS'ardrone_base_link'
p1020
abaF84.0
aI3
aI6
aI-100
aI152
aI101960
aI397
aF0.1011025458574295
aF75.08303833007812
aF0.0
aF0.14000000059604645
aF-9.763999938964844
aF0.17900000512599945
aI1490
aF-928.8283081054688
aF-76.9516830444336
aF-0.0
aF0.10529601573944092
aF-0.012877908535301685
aF1.0168063640594482
aI0
a(ta(ta(ta(ta(ta(ta(taF2953336576.0
abag16
(g17
g18
Ntp1021
Rp1022
(lp1023
g16
(g22
g18
Ntp1024
Rp1025
(lp1026
I3277
ag16
(g26
g18
Ntp1027
Rp1028
(lp1029
I1350917656
aI480252052
abaS'ardrone_base_link'
p1030
abaF84.0
aI3
aI9
aI-101
aI157
aI101957
aI397
aF0.10178293287754059
aF75.73050689697266
aF0.0
aF0.2199999988079071
aF-9.633999824523926
aF0.07400000095367432
aI1485
aF-984.27197265625
aF-82.2011947631836
aF-0.0
aF0.11087868362665176
aF-0.014344427734613419
aF1.0120806694030762
aI0
a(ta(ta(ta(ta(ta(ta(taF2953401600.0
abag16
(g17
g18
Ntp1031
Rp1032
(lp1033
g16
(g22
g18
Ntp1034
Rp1035
(lp1036
I3278
ag16
(g26
g18
Ntp1037
Rp1038
(lp1039
I1350917656
aI546073670
abaS'ardrone_base_link'
p1040
abaF84.0
aI3
aI3
aI-99
aI153
aI101988
aI397
aF0.10235083103179932
aF76.66476440429688
aF0.0
aF0.20399999618530273
aF-9.579000473022461
aF-0.028999999165534973
aI1481
aF-1074.6654052734375
aF-89.84722137451172
aF-0.0
aF0.12435848265886307
aF-0.01106744259595871
aF0.9356279969215393
aI0
a(ta(ta(ta(ta(ta(ta(taF2953466624.0
abag16
(g17
g18
Ntp1041
Rp1042
(lp1043
g16
(g22
g18
Ntp1044
Rp1045
(lp1046
I3279
ag16
(g26
g18
Ntp1047
Rp1048
(lp1049
I1350917656
aI594248594
abaS'ardrone_base_link'
p1050
abaF84.0
aI3
aI5
aI-99
aI151
aI101979
aI397
aF0.10413087904453278
aF76.695556640625
aF0.0
aF0.12600000202655792
aF-9.574999809265137
aF-0.10899999737739563
aI1476
aF-1127.86865234375
aF-108.79130554199219
aF-0.0
aF0.12299375236034393
aF-0.00981194619089365
aF0.8670697212219238
aI0
a(ta(ta(ta(ta(ta(ta(taF2953531648.0
abag16
(g17
g18
Ntp1051
Rp1052
(lp1053
g16
(g22
g18
Ntp1054
Rp1055
(lp1056
I3280
ag16
(g26
g18
Ntp1057
Rp1058
(lp1059
I1350917656
aI666051192
abaS'ardrone_base_link'
p1060
abaF84.0
aI3
aI4
aI-100
aI160
aI101979
aI396
aF0.10587935894727707
aF77.412841796875
aF0.0
aF0.009999999776482582
aF-9.600000381469727
aF-0.16599999368190765
aI1474
aF-1202.3179931640625
aF-120.17076110839844
aF-0.0
aF0.1209338903427124
aF-0.009426414035260677
aF0.9752897620201111
aI0
a(ta(ta(ta(ta(ta(ta(taF2953596672.0
abag16
(g17
g18
Ntp1061
Rp1062
(lp1063
g16
(g22
g18
Ntp1064
Rp1065
(lp1066
I3281
ag16
(g26
g18
Ntp1067
Rp1068
(lp1069
I1350917656
aI728815149
abaS'ardrone_base_link'
p1070
abaF84.0
aI3
aI5
aI-99
aI161
aI101995
aI397
aF0.10812516510486603
aF77.85974884033203
aF0.0
aF-0.02800000086426735
aF-9.539999961853027
aF-0.21799999475479126
aI1473
aF-1254.14306640625
aF-133.4994659423828
aF-0.0
aF0.1282580941915512
aF-0.013291371054947376
aF0.9773253202438354
aI0
a(ta(ta(ta(ta(ta(ta(taF2953661696.0
abag16
(g17
g18
Ntp1071
Rp1072
(lp1073
g16
(g22
g18
Ntp1074
Rp1075
(lp1076
I3282
ag16
(g26
g18
Ntp1077
Rp1078
(lp1079
I1350917656
aI786106124
abaS'ardrone_base_link'
p1080
abaF84.0
aI3
aI8
aI-98
aI156
aI101963
aI396
aF0.1093369722366333
aF78.6118392944336
aF0.0
aF-0.09700000286102295
aF-9.644000053405762
aF-0.2939999997615814
aI1473
aF-1323.617431640625
aF-140.70703125
aF-0.0
aF0.13321369886398315
aF-0.007215876132249832
aF1.0022844076156616
aI0
a(ta(ta(ta(ta(ta(ta(taF2953726720.0
abag16
(g17
g18
Ntp1081
Rp1082
(lp1083
g16
(g22
g18
Ntp1084
Rp1085
(lp1086
I3283
ag16
(g26
g18
Ntp1087
Rp1088
(lp1089
I1350917656
aI849986111
abaS'ardrone_base_link'
p1090
abaF84.0
aI3
aI6
aI-98
aI158
aI101970
aI397
aF0.11030293256044388
aF79.73532104492188
aF0.0
aF-0.09099999815225601
aF-9.802000045776367
aF-0.39500001072883606
aI1489
aF-1412.9423828125
aF-133.70535278320312
aF-0.0
aF0.13787218928337097
aF-0.009618747048079967
aF0.9833752512931824
aI0
a(ta(ta(ta(ta(ta(ta(taF2954888960.0
abag16
(g17
g18
Ntp1091
Rp1092
(lp1093
g16
(g22
g18
Ntp1094
Rp1095
(lp1096
I3284
ag16
(g26
g18
Ntp1097
Rp1098
(lp1099
I1350917656
aI930184840
abaS'ardrone_base_link'
p1100
abaF84.0
aI3
aI5
aI-103
aI159
aI101973
aI397
aF0.11108846962451935
aF81.61079406738281
aF0.0
aF-0.04399999976158142
aF-9.934000015258789
aF-0.4779999852180481
aI1490
aF-1525.420166015625
aF-133.06060791015625
aF-0.0
aF0.13795706629753113
aF-0.005987884942442179
aF0.9635184407234192
aI0
a(ta(ta(ta(ta(ta(ta(taF2954953984.0
abag16
(g17
g18
Ntp1101
Rp1102
(lp1103
g16
(g22
g18
Ntp1104
Rp1105
(lp1106
I3285
ag16
(g26
g18
Ntp1107
Rp1108
(lp1109
I1350917656
aI986103088
abaS'ardrone_base_link'
p1110
abaF84.0
aI3
aI6
aI-102
aI158
aI101973
aI396
aF0.10989759862422943
aF83.64789581298828
aF0.0
aF-0.07900000363588333
aF-10.031000137329102
aF-0.5419999957084656
aI1496
aF-1620.2900390625
aF-91.52056121826172
aF-0.0
aF0.1444716453552246
aF-0.009467799216508865
aF0.9113118648529053
aI0
a(ta(ta(ta(ta(ta(ta(taF2955019008.0
abag16
(g17
g18
Ntp1111
Rp1112
(lp1113
g16
(g22
g18
Ntp1114
Rp1115
(lp1116
I3286
ag16
(g26
g18
Ntp1117
Rp1118
(lp1119
I1350917657
aI106095768
abaS'ardrone_base_link'
p1120
abaF84.0
aI3
aI8
aI-98
aI156
aI101970
aI397
aF0.10938500612974167
aF85.61294555664062
aF0.0
aF-0.10499999672174454
aF-10.152000427246094
aF-0.6299999952316284
aI1503
aF-1692.12890625
aF-88.31307220458984
aF-0.0
aF0.11468600481748581
aF-0.0027929290663450956
aF0.9272490739822388
aI0
a(ta(ta(ta(ta(ta(ta(taF2955084032.0
abag16
(g17
g18
Ntp1121
Rp1122
(lp1123
g16
(g22
g18
Ntp1124
Rp1125
(lp1126
I3287
ag16
(g26
g18
Ntp1127
Rp1128
(lp1129
I1350917657
aI146078764
abaS'ardrone_base_link'
p1130
abaF84.0
aI3
aI4
aI-98
aI158
aI101966
aI396
aF0.10922566056251526
aF88.73995971679688
aF0.0
aF-0.18000000715255737
aF-10.230999946594238
aF-0.7039999961853027
aI1506
aF-1739.8697509765625
aF-87.38298034667969
aF-0.0
aF0.1323590874671936
aF-0.003544093342497945
aF0.8440272212028503
aI0
a(ta(ta(ta(ta(ta(ta(taF2955149056.0
abag16
(g17
g18
Ntp1131
Rp1132
(lp1133
g16
(g22
g18
Ntp1134
Rp1135
(lp1136
I3288
ag16
(g26
g18
Ntp1137
Rp1138
(lp1139
I1350917657
aI233699834
abaS'ardrone_base_link'
p1140
abaF84.0
aI3
aI7
aI-97
aI151
aI101966
aI397
aF0.10914213955402374
aF90.17534637451172
aF0.0
aF-0.3089999854564667
aF-9.753999710083008
aF-0.7950000166893005
aI1510
aF-1768.648681640625
aF-79.11030578613281
aF-0.0
aF0.13323141634464264
aF-0.0009395290981046855
aF0.9427481889724731
aI0
a(ta(ta(ta(ta(ta(ta(taF2955214080.0
abag16
(g17
g18
Ntp1141
Rp1142
(lp1143
g16
(g22
g18
Ntp1144
Rp1145
(lp1146
I3289
ag16
(g26
g18
Ntp1147
Rp1148
(lp1149
I1350917657
aI248864724
abaS'ardrone_base_link'
p1150
abaF84.0
aI3
aI9
aI-107
aI159
aI101976
aI397
aF0.11022614687681198
aF91.2596435546875
aF0.0
aF-0.2029999941587448
aF-6.635000228881836
aF-0.8640000224113464
aI1512
aF-1754.4613037109375
aF-95.09049987792969
aF-0.0
aF0.14051322638988495
aF-0.0157022662460804
aF0.9689393639564514
aI0
a(ta(ta(ta(ta(ta(ta(taF2955279104.0
abag16
(g17
g18
Ntp1151
Rp1152
(lp1153
g16
(g22
g18
Ntp1154
Rp1155
(lp1156
I3290
ag16
(g26
g18
Ntp1157
Rp1158
(lp1159
I1350917657
aI330413556
abaS'ardrone_base_link'
p1160
abaF84.0
aI3
aI12
aI-124
aI160
aI101970
aI397
aF0.11314257234334946
aF91.49378967285156
aF0.0
aF-0.10199999809265137
aF-1.3630000352859497
aF-0.8970000147819519
aI1513
aF-1693.2449951171875
aF-131.64073181152344
aF-0.0
aF0.15734988451004028
aF-0.007683007977902889
aF0.9997828006744385
aI0
a(ta(ta(ta(ta(ta(ta(taF2955344128.0
abag16
(g17
g18
Ntp1161
Rp1162
(lp1163
g16
(g22
g18
Ntp1164
Rp1165
(lp1166
I3291
ag16
(g26
g18
Ntp1167
Rp1168
(lp1169
I1350917657
aI386110866
abaS'ardrone_base_link'
p1170
abaF84.0
aI3
aI9
aI-131
aI169
aI101954
aI397
aF0.11641329526901245
aF91.78596496582031
aF0.0
aF-0.07500000298023224
aF4.433000087738037
aF-0.9269999861717224
aI1512
aF-1620.6781005859375
aF-163.361572265625
aF-0.0
aF0.12677668035030365
aF-0.0026078468654304743
aF1.0100352764129639
aI0
a(ta(ta(ta(ta(ta(ta(taF2955409152.0
abag16
(g17
g18
Ntp1171
Rp1172
(lp1173
g16
(g22
g18
Ntp1174
Rp1175
(lp1176
I3292
ag16
(g26
g18
Ntp1177
Rp1178
(lp1179
I1350917657
aI528741048
abaS'ardrone_base_link'
p1180
abaF84.0
aI3
aI9
aI-145
aI175
aI101960
aI397
aF0.12103991955518723
aF93.49047088623047
aF0.0
aF0.0020000000949949026
aF9.454000473022461
aF-0.9319999814033508
aI1511
aF-1414.917724609375
aF-210.8925018310547
aF-0.0
aF0.11895900964736938
aF-0.006908172741532326
aF0.9686582088470459
aI0
a(ta(ta(ta(ta(ta(ta(taF2955474176.0
abag16
(g17
g18
Ntp1181
Rp1182
(lp1183
g16
(g22
g18
Ntp1184
Rp1185
(lp1186
I3293
ag16
(g26
g18
Ntp1187
Rp1188
(lp1189
I1350917657
aI546069053
abaS'ardrone_base_link'
p1190
abaF84.0
aI3
aI6
aI-154
aI178
aI101966
aI396
aF0.12357855588197708
aF92.63370513916016
aF0.0
aF-0.032999999821186066
aF13.291000366210938
aF-0.9779999852180481
aI1517
aF-1195.7525634765625
aF-206.02359008789062
aF-0.0
aF0.13898061215877533
aF-0.0064507899805903435
aF1.0289045572280884
aI0
a(ta(ta(ta(ta(ta(ta(taF2955539200.0
abag16
(g17
g18
Ntp1191
Rp1192
(lp1193
g16
(g22
g18
Ntp1194
Rp1195
(lp1196
I3294
ag16
(g26
g18
Ntp1197
Rp1198
(lp1199
I1350917657
aI654711698
abaS'ardrone_base_link'
p1200
abaF84.0
aI3
aI9
aI-159
aI189
aI101970
aI397
aF0.12224966287612915
aF93.6942138671875
aF0.0
aF0.19499999284744263
aF16.641000747680664
aF-1.0160000324249268
aI1528
aF-838.9000854492188
aF-98.45050811767578
aF-0.0
aF0.13020601868629456
aF-0.005475008860230446
aF0.969530463218689
aI0
a(ta(ta(ta(ta(ta(ta(taF2955669248.0
abag16
(g17
g18
Ntp1201
Rp1202
(lp1203
g16
(g22
g18
Ntp1204
Rp1205
(lp1206
I3295
ag16
(g26
g18
Ntp1207
Rp1208
(lp1209
I1350917657
aI710292326
abaS'ardrone_base_link'
p1210
abaF84.0
aI3
aI5
aI-159
aI187
aI101976
aI397
aF0.12202537059783936
aF94.54151916503906
aF0.0
aF0.382999986410141
aF16.488000869750977
aF-1.0119999647140503
aI1537
aF-687.7676391601562
aF-75.6956558227539
aF-0.0
aF0.12080107629299164
aF-0.008878491818904877
aF0.8804244995117188
aI0
a(ta(ta(ta(ta(ta(ta(taF2955734272.0
abag16
(g17
g18
Ntp1211
Rp1212
(lp1213
g16
(g22
g18
Ntp1214
Rp1215
(lp1216
I3296
ag16
(g26
g18
Ntp1217
Rp1218
(lp1219
I1350917657
aI789318968
abaS'ardrone_base_link'
p1220
abaF84.0
aI3
aI9
aI-161
aI187
aI101957
aI397
aF0.12139848619699478
aF94.21229553222656
aF0.0
aF0.3840000033378601
aF15.71500015258789
aF-1.0199999809265137
aI1544
aF-503.7662048339844
aF-56.97638702392578
aF-0.0
aF0.11114268004894257
aF-0.007659888360649347
aF0.9367101192474365
aI0
a(ta(ta(ta(ta(ta(ta(taF2955799296.0
abag16
(g17
g18
Ntp1221
Rp1222
(lp1223
g16
(g22
g18
Ntp1224
Rp1225
(lp1226
I3297
ag16
(g26
g18
Ntp1227
Rp1228
(lp1229
I1350917657
aI942792315
abaS'ardrone_base_link'
p1230
abaF84.0
aI3
aI7
aI-155
aI185
aI101970
aI397
aF0.12121735513210297
aF92.50736236572266
aF0.0
aF0.12999999523162842
aF13.821000099182129
aF-1.0420000553131104
aI1577
aF-220.35292053222656
aF-55.65353775024414
aF-0.0
aF0.07392716407775879
aF-0.011515808291733265
aF0.8998029232025146
aI0
a(ta(ta(ta(ta(ta(ta(taF2957026560.0
abag16
(g17
g18
Ntp1231
Rp1232
(lp1233
g16
(g22
g18
Ntp1234
Rp1235
(lp1236
I3298
ag16
(g26
g18
Ntp1237
Rp1238
(lp1239
I1350917657
aI970700332
abaS'ardrone_base_link'
p1240
abaF84.0
aI3
aI9
aI-153
aI181
aI101979
aI397
aF0.12109679728746414
aF92.01300811767578
aF0.0
aF-0.026000000536441803
aF12.937999725341797
aF-1.0540000200271606
aI1578
aF-72.19175720214844
aF-46.83954620361328
aF-0.0
aF0.04967249184846878
aF-0.00570896128192544
aF0.9284535050392151
aI0
a(ta(ta(ta(ta(ta(ta(taF2957091584.0
abag16
(g17
g18
Ntp1241
Rp1242
(lp1243
g16
(g22
g18
Ntp1244
Rp1245
(lp1246
I3299
ag16
(g26
g18
Ntp1247
Rp1248
(lp1249
I1350917658
aI29232770
abaS'ardrone_base_link'
p1250
abaF84.0
aI3
aI4
aI-150
aI176
aI101979
aI397
aF0.12155650556087494
aF93.55247497558594
aF0.0
aF-0.09099999815225601
aF12.109000205993652
aF-1.0549999475479126
aI1577
aF35.22446823120117
aF-53.85519790649414
aF-0.0
aF0.013775229454040527
aF-0.01788031868636608
aF0.9485992193222046
aI0
a(ta(ta(ta(ta(ta(ta(taF2957156608.0
abag16
(g17
g18
Ntp1251
Rp1252
(lp1253
g16
(g22
g18
Ntp1254
Rp1255
(lp1256
I3300
ag16
(g26
g18
Ntp1257
Rp1258
(lp1259
I1350917658
aI86099265
abaS'ardrone_base_link'
p1260
abaF84.0
aI3
aI12
aI-150
aI184
aI101976
aI397
aF0.12146776169538498
aF95.83787536621094
aF0.0
aF-0.17399999499320984
aF11.279000282287598
aF-1.0360000133514404
aI1576
aF129.29518127441406
aF-47.62771224975586
aF-0.0
aF0.005277915392071009
aF-0.004493570886552334
aF0.9570505023002625
aI0
a(ta(ta(ta(ta(ta(ta(taF2957221888.0
abag16
(g17
g18
Ntp1261
Rp1262
(lp1263
g16
(g22
g18
Ntp1264
Rp1265
(lp1266
I3301
ag16
(g26
g18
Ntp1267
Rp1268
(lp1269
I1350917658
aI206356435
abaS'ardrone_base_link'
p1270
abaF84.0
aI3
aI13
aI-147
aI179
aI101979
aI397
aF0.12196666747331619
aF97.23424530029297
aF0.0
aF-0.26499998569488525
aF10.565999984741211
aF-0.9940000176429749
aI1569
aF223.51043701171875
aF-50.552913665771484
aF-0.0
aF0.011968794278800488
aF-0.006742449477314949
aF0.9725441336631775
aI0
a(ta(ta(ta(ta(ta(ta(taF2957286656.0
abag16
(g17
g18
Ntp1271
Rp1272
(lp1273
g16
(g22
g18
Ntp1274
Rp1275
(lp1276
I3302
ag16
(g26
g18
Ntp1277
Rp1278
(lp1279
I1350917658
aI286033224
abaS'ardrone_base_link'
p1280
abaF84.0
aI3
aI5
aI-143
aI181
aI101960
aI397
aF0.12184865027666092
aF98.11907196044922
aF0.0
aF-0.3140000104904175
aF9.895999908447266
aF-0.9539999961853027
aI1558
aF329.7728576660156
aF-45.6399040222168
aF-0.0
aF0.012220543809235096
aF-0.014239631593227386
aF0.9861912131309509
aI0
a(ta(ta(ta(ta(ta(ta(taF2957351680.0
abag16
(g17
g18
Ntp1281
Rp1282
(lp1283
g16
(g22
g18
Ntp1284
Rp1285
(lp1286
I3303
ag16
(g26
g18
Ntp1287
Rp1288
(lp1289
I1350917658
aI310304483
abaS'ardrone_base_link'
p1290
abaF84.0
aI3
aI9
aI-139
aI179
aI101976
aI397
aF0.12175945192575455
aF98.10264587402344
aF0.0
aF-0.3720000088214874
aF9.315999984741211
aF-0.906000018119812
aI1541
aF454.3765869140625
aF-43.54547119140625
aF-0.0
aF0.005014742724597454
aF-0.015318423509597778
aF0.9974819421768188
aI0
a(ta(ta(ta(ta(ta(ta(taF2957416960.0
abag16
(g17
g18
Ntp1291
Rp1292
(lp1293
g16
(g22
g18
Ntp1294
Rp1295
(lp1296
I3304
ag16
(g26
g18
Ntp1297
Rp1298
(lp1299
I1350917658
aI368763095
abaS'ardrone_base_link'
p1300
abaF84.0
aI3
aI11
aI-141
aI171
aI101973
aI397
aF0.12177028506994247
aF98.69512939453125
aF0.0
aF-0.4020000100135803
aF8.822999954223633
aF-0.8690000176429749
aI1524
aF535.6695556640625
aF-40.45552444458008
aF-0.0
aF-0.00903414934873581
aF-0.01031133159995079
aF1.0217564105987549
aI0
a(ta(ta(ta(ta(ta(ta(taF2957481984.0
abag16
(g17
g18
Ntp1301
Rp1302
(lp1303
g16
(g22
g18
Ntp1304
Rp1305
(lp1306
I3305
ag16
(g26
g18
Ntp1307
Rp1308
(lp1309
I1350917658
aI492141464
abaS'ardrone_base_link'
p1310
abaF84.0
aI3
aI8
aI-142
aI174
aI101966
aI397
aF0.11976750195026398
aF97.21797180175781
aF0.0
aF-0.3700000047683716
aF8.142999649047852
aF-0.8069999814033508
aI1492
aF680.0626831054688
aF-22.445268630981445
aF-0.0
aF0.016926273703575134
aF-0.004663496743887663
aF1.0263653993606567
aI0
a(ta(ta(ta(ta(ta(ta(taF2957612032.0
abag16
(g17
g18
Ntp1311
Rp1312
(lp1313
g16
(g22
g18
Ntp1314
Rp1315
(lp1316
I3306
ag16
(g26
g18
Ntp1317
Rp1318
(lp1319
I1350917658
aI566068995
abaS'ardrone_base_link'
p1320
abaF84.0
aI3
aI9
aI-141
aI173
aI101973
aI397
aF0.11888657510280609
aF96.44749450683594
aF0.0
aF-0.3109999895095825
aF7.959000110626221
aF-0.765999972820282
aI1480
aF734.677490234375
aF-7.714386463165283
aF-0.0
aF0.01960296370089054
aF-0.008554911240935326
aF1.0044453144073486
aI0
a(ta(ta(ta(ta(ta(ta(taF2957677056.0
abag16
(g17
g18
Ntp1321
Rp1322
(lp1323
g16
(g22
g18
Ntp1324
Rp1325
(lp1326
I3307
ag16
(g26
g18
Ntp1327
Rp1328
(lp1329
I1350917658
aI629390973
abaS'ardrone_base_link'
p1330
abaF84.0
aI3
aI8
aI-146
aI174
aI101982
aI397
aF0.11821556091308594
aF95.86064910888672
aF0.0
aF-0.2680000066757202
aF7.703000068664551
aF-0.718999981880188
aI1467
aF776.3148193359375
aF-9.811208724975586
aF-0.0
aF0.008525974117219448
aF-0.007295435760170221
aF1.017500638961792
aI0
a(ta(ta(ta(ta(ta(ta(taF2957742080.0
abag16
(g17
g18
Ntp1331
Rp1332
(lp1333
g16
(g22
g18
Ntp1334
Rp1335
(lp1336
I3308
ag16
(g26
g18
Ntp1337
Rp1338
(lp1339
I1350917658
aI709670359
abaS'ardrone_base_link'
p1340
abaF84.0
aI3
aI6
aI-142
aI178
aI101976
aI397
aF0.11731253564357758
aF95.14591217041016
aF0.0
aF-0.25699999928474426
aF7.473999977111816
aF-0.7300000190734863
aI1459
aF831.284912109375
aF1.4201055765151978
aF-0.0
aF-0.0070688677951693535
aF-0.012622673064470291
aF1.0393646955490112
aI0
a(ta(ta(ta(ta(ta(ta(taF2957807104.0
abag16
(g17
g18
Ntp1341
Rp1342
(lp1343
g16
(g22
g18
Ntp1344
Rp1345
(lp1346
I3309
ag16
(g26
g18
Ntp1347
Rp1348
(lp1349
I1350917658
aI746082292
abaS'ardrone_base_link'
p1350
abaF84.0
aI3
aI7
aI-139
aI177
aI101979
aI397
aF0.11558648198843002
aF94.21516418457031
aF0.0
aF-0.3160000145435333
aF7.265999794006348
aF-0.6930000185966492
aI1454
aF900.94580078125
aF20.80071449279785
aF-0.0
aF0.0003224601678084582
aF-0.007445989642292261
aF1.0377540588378906
aI0
a(ta(ta(ta(ta(ta(ta(taF2957872128.0
abag16
(g17
g18
Ntp1351
Rp1352
(lp1353
g16
(g22
g18
Ntp1354
Rp1355
(lp1356
I3310
ag16
(g26
g18
Ntp1357
Rp1358
(lp1359
I1350917658
aI806102476
abaS'ardrone_base_link'
p1360
abaF84.0
aI3
aI7
aI-145
aI173
aI101973
aI397
aF0.11428482830524445
aF93.35923767089844
aF0.0
aF-0.3370000123977661
aF7.239999771118164
aF-0.6679999828338623
aI1450
aF935.0825805664062
aF25.071529388427734
aF-0.0
aF-0.0034654028713703156
aF-0.009568354114890099
aF1.007620096206665
aI0
a(ta(ta(ta(ta(ta(ta(taF2957937408.0
abag16
(g17
g18
Ntp1361
Rp1362
(lp1363
g16
(g22
g18
Ntp1364
Rp1365
(lp1366
I3311
ag16
(g26
g18
Ntp1367
Rp1368
(lp1369
I1350917658
aI869605897
abaS'ardrone_base_link'
p1370
abaF84.0
aI3
aI8
aI-136
aI178
aI101970
aI397
aF0.11343111842870712
aF93.30889129638672
aF0.0
aF-0.27300000190734863
aF7.328999996185303
aF-0.6520000100135803
aI1448
aF960.7686157226562
aF29.626691818237305
aF-0.0
aF-0.0029215107206255198
aF-0.006170845124870539
aF1.01723051071167
aI0
a(ta(ta(ta(ta(ta(ta(taF2959099392.0
abag16
(g17
g18
Ntp1371
Rp1372
(lp1373
g16
(g22
g18
Ntp1374
Rp1375
(lp1376
I3312
ag16
(g26
g18
Ntp1377
Rp1378
(lp1379
I1350917658
aI926083200
abaS'ardrone_base_link'
p1380
abaF84.0
aI3
aI2
aI-138
aI170
aI101976
aI397
aF0.11164885759353638
aF92.4504165649414
aF0.0
aF-0.2549999952316284
aF7.370999813079834
aF-0.6309999823570251
aI1447
aF1010.2721557617188
aF37.54804611206055
aF-0.0
aF-0.02008301019668579
aF-0.005640190094709396
aF1.0077056884765625
aI0
a(ta(ta(ta(ta(ta(ta(taF2959164416.0
abag16
(g17
g18
Ntp1381
Rp1382
(lp1383
g16
(g22
g18
Ntp1384
Rp1385
(lp1386
I3313
ag16
(g26
g18
Ntp1387
Rp1388
(lp1389
I1350917659
aI6038476
abaS'ardrone_base_link'
p1390
abaF84.0
aI3
aI12
aI-142
aI176
aI101957
aI397
aF0.10990163683891296
aF91.42377471923828
aF0.0
aF-0.13600000739097595
aF7.234000205993652
aF-0.6119999885559082
aI1447
aF1062.3128662109375
aF49.601646423339844
aF-0.0
aF-0.01175394095480442
aF-0.01306549459695816
aF1.0037786960601807
aI0
a(ta(ta(ta(ta(ta(ta(taF2959229440.0
abag16
(g17
g18
Ntp1391
Rp1392
(lp1393
g16
(g22
g18
Ntp1394
Rp1395
(lp1396
I3314
ag16
(g26
g18
Ntp1397
Rp1398
(lp1399
I1350917659
aI70590364
abaS'ardrone_base_link'
p1400
abaF84.0
aI3
aI7
aI-143
aI177
aI101970
aI397
aF0.10910570621490479
aF91.12257385253906
aF0.0
aF-0.006000000052154064
aF7.184000015258789
aF-0.5889999866485596
aI1450
aF1089.2786865234375
aF44.75654220581055
aF-0.0
aF-0.020137738436460495
aF-0.012810724787414074
aF0.9942389726638794
aI0
a(ta(ta(ta(ta(ta(ta(taF2959294464.0
abag16
(g17
g18
Ntp1401
Rp1402
(lp1403
g16
(g22
g18
Ntp1404
Rp1405
(lp1406
I3315
ag16
(g26
g18
Ntp1407
Rp1408
(lp1409
I1350917659
aI128752160
abaS'ardrone_base_link'
p1410
abaF84.0
aI3
aI5
aI-141
aI173
aI101960
aI397
aF0.10593026131391525
aF86.61833190917969
aF0.0
aF0.05299999937415123
aF7.301000118255615
aF-0.5619999766349792
aI1454
aF1296.165771484375
aF89.55122375488281
aF-0.0
aF-0.02432413585484028
aF-0.010087442584335804
aF0.9860990047454834
aI0
a(ta(ta(ta(ta(ta(ta(taF2959359488.0
abag16
(g17
g18
Ntp1411
Rp1412
(lp1413
g16
(g22
g18
Ntp1414
Rp1415
(lp1416
I3316
ag16
(g26
g18
Ntp1417
Rp1418
(lp1419
I1350917659
aI197583515
abaS'ardrone_base_link'
p1420
abaF84.0
aI3
aI8
aI-142
aI182
aI101951
aI397
aF0.10337333381175995
aF83.608154296875
aF0.0
aF0.12700000405311584
aF7.380000114440918
aF-0.5669999718666077
aI1455
aF1357.06689453125
aF109.28685760498047
aF-0.0
aF-0.025412024930119514
aF-0.019897328689694405
aF0.9915381669998169
aI0
a(ta(ta(ta(ta(ta(ta(taF2959424768.0
abag16
(g17
g18
Ntp1421
Rp1422
(lp1423
g16
(g22
g18
Ntp1424
Rp1425
(lp1426
I3317
ag16
(g26
g18
Ntp1427
Rp1428
(lp1429
I1350917659
aI272050406
abaS'ardrone_base_link'
p1430
abaF84.0
aI3
aI12
aI-144
aI180
aI101957
aI397
aF0.1022147387266159
aF81.3084716796875
aF0.0
aF0.1589999943971634
aF7.520999908447266
aF-0.5440000295639038
aI1456
aF1414.90478515625
aF109.86579895019531
aF-0.0
aF-0.026038629934191704
aF-0.014855066314339638
aF0.9920239448547363
aI0
a(ta(ta(ta(ta(ta(ta(taF2959489536.0
abag16
(g17
g18
Ntp1431
Rp1432
(lp1433
g16
(g22
g18
Ntp1434
Rp1435
(lp1436
I3318
ag16
(g26
g18
Ntp1437
Rp1438
(lp1439
I1350917659
aI326070999
abaS'ardrone_base_link'
p1440
abaF84.0
aI3
aI10
aI-140
aI172
aI101960
aI397
aF0.10026265680789948
aF79.77169799804688
aF0.0
aF0.026000000536441803
aF7.791999816894531
aF-0.5249999761581421
aI1460
aF1439.6827392578125
aF111.921630859375
aF-0.0
aF-0.027197102084755898
aF-0.010278468951582909
aF0.991210401058197
aI0
a(ta(ta(ta(ta(ta(ta(taF2959554560.0
abag16
(g17
g18
Ntp1441
Rp1442
(lp1443
g16
(g22
g18
Ntp1444
Rp1445
(lp1446
I3319
ag16
(g26
g18
Ntp1447
Rp1448
(lp1449
I1350917659
aI408791020
abaS'ardrone_base_link'
p1450
abaF84.0
aI3
aI2
aI-146
aI180
aI101954
aI397
aF0.09815659373998642
aF78.67071533203125
aF0.0
aF-0.07500000298023224
aF8.038000106811523
aF-0.49399998784065247
aI1464
aF1440.5533447265625
aF120.46666717529297
aF-0.0
aF-0.03105452097952366
aF-0.01212865300476551
aF0.9845505952835083
aI0
a(ta(ta(ta(ta(ta(ta(taF2959619840.0
abag16
(g17
g18
Ntp1451
Rp1452
(lp1453
g16
(g22
g18
Ntp1454
Rp1455
(lp1456
I3320
ag16
(g26
g18
Ntp1457
Rp1458
(lp1459
I1350917659
aI466051867
abaS'ardrone_base_link'
p1460
abaF84.0
aI3
aI11
aI-145
aI173
aI101957
aI397
aF0.09660811722278595
aF77.88085174560547
aF0.0
aF-0.10999999940395355
aF8.241999626159668
aF-0.4819999933242798
aI1469
aF1439.689453125
aF119.13453674316406
aF-0.0
aF-0.028587335720658302
aF-0.01011287234723568
aF0.989149808883667
aI0
a(ta(ta(ta(ta(ta(ta(taF2959684864.0
abag16
(g17
g18
Ntp1461
Rp1462
(lp1463
g16
(g22
g18
Ntp1464
Rp1465
(lp1466
I3321
ag16
(g26
g18
Ntp1467
Rp1468
(lp1469
I1350917659
aI532566779
abaS'ardrone_base_link'
p1470
abaF84.0
aI3
aI4
aI-148
aI176
aI101976
aI397
aF0.09373713284730911
aF77.46675109863281
aF0.0
aF-0.11900000274181366
aF8.491000175476074
aF-0.421999990940094
aI1473
aF1441.424072265625
aF120.04228973388672
aF-0.0
aF-0.04105200245976448
aF-0.0022307175677269697
aF0.9659874439239502
aI0
a(ta(ta(ta(ta(ta(ta(taF2959749632.0
abag16
(g17
g18
Ntp1471
Rp1472
(lp1473
g16
(g22
g18
Ntp1474
Rp1475
(lp1476
I3322
ag16
(g26
g18
Ntp1477
Rp1478
(lp1479
I1350917659
aI586051121
abaS'ardrone_base_link'
p1480
abaF84.0
aI3
aI11
aI-145
aI171
aI101960
aI397
aF0.09131107479333878
aF77.75065612792969
aF0.0
aF-0.10000000149011612
aF8.78499984741211
aF-0.3580000102519989
aI1479
aF1437.794677734375
aF107.78486633300781
aF-0.0
aF-0.04134028032422066
aF-0.01554382499307394
aF0.9719761610031128
aI0
a(ta(ta(ta(ta(ta(ta(taF2959814912.0
abag16
(g17
g18
Ntp1481
Rp1482
(lp1483
g16
(g22
g18
Ntp1484
Rp1485
(lp1486
I3323
ag16
(g26
g18
Ntp1487
Rp1488
(lp1489
I1350917659
aI692225644
abaS'ardrone_base_link'
p1490
abaF84.0
aI3
aI7
aI-151
aI175
aI101976
aI397
aF0.0892074704170227
aF78.90060424804688
aF0.0
aF-0.16500000655651093
aF9.003000259399414
aF-0.35100001096725464
aI1490
aF1424.472412109375
aF97.82386016845703
aF-0.0
aF-0.05035196244716644
aF-0.002942401450127363
aF0.9556893706321716
aI0
a(ta(ta(ta(ta(ta(ta(taF2959879936.0
abag16
(g17
g18
Ntp1491
Rp1492
(lp1493
g16
(g22
g18
Ntp1494
Rp1495
(lp1496
I3324
ag16
(g26
g18
Ntp1497
Rp1498
(lp1499
I1350917659
aI770467984
abaS'ardrone_base_link'
p1500
abaF84.0
aI3
aI7
aI-145
aI177
aI101982
aI397
aF0.08634807914495468
aF79.68358612060547
aF0.0
aF-0.17000000178813934
aF9.222999572753906
aF-0.35100001096725464
aI1494
aF1427.999267578125
aF97.65481567382812
aF-0.0
aF-0.04841229319572449
aF-0.008286438882350922
aF0.961450457572937
aI0
a(ta(ta(ta(ta(ta(ta(taF2959944960.0
abag16
(g17
g18
Ntp1501
Rp1502
(lp1503
g16
(g22
g18
Ntp1504
Rp1505
(lp1506
I3325
ag16
(g26
g18
Ntp1507
Rp1508
(lp1509
I1350917659
aI848877541
abaS'ardrone_base_link'
p1510
abaF84.0
aI3
aI7
aI-149
aI177
aI101976
aI397
aF0.0848032534122467
aF80.48884582519531
aF0.0
aF-0.14100000262260437
aF9.364999771118164
aF-0.382999986410141
aI1490
aF1439.7855224609375
aF87.46580505371094
aF-0.0
aF-0.04807046428322792
aF-0.007977193221449852
aF0.9668835401535034
aI0
a(ta(ta(ta(ta(ta(ta(taF2960009728.0
abag16
(g17
g18
Ntp1511
Rp1512
(lp1513
g16
(g22
g18
Ntp1514
Rp1515
(lp1516
I3326
ag16
(g26
g18
Ntp1517
Rp1518
(lp1519
I1350917659
aI866064277
abaS'ardrone_base_link'
p1520
abaF84.0
aI3
aI9
aI-147
aI179
aI101982
aI397
aF0.08318429440259933
aF82.44547271728516
aF0.0
aF-0.10199999809265137
aF9.487000465393066
aF-0.375
aI1491
aF1434.6204833984375
aF74.58419799804688
aF-0.0
aF-0.05286172404885292
aF-0.0038911609444767237
aF0.9729425311088562
aI0
a(ta(ta(ta(ta(ta(ta(taF2960075008.0
abag16
(g17
g18
Ntp1521
Rp1522
(lp1523
g16
(g22
g18
Ntp1524
Rp1525
(lp1526
I3327
ag16
(g26
g18
Ntp1527
Rp1528
(lp1529
I1350917659
aI946094057
abaS'ardrone_base_link'
p1530
abaF84.0
aI3
aI9
aI-147
aI177
aI101967
aI397
aF0.08222373574972153
aF82.65047454833984
aF0.0
aF-0.04600000008940697
aF9.633000373840332
aF-0.3479999899864197
aI1494
aF1498.3118896484375
aF42.952186584472656
aF-0.0
aF-0.05476485192775726
aF-0.010780698619782925
aF0.9671947360038757
aI0
a(ta(ta(ta(ta(ta(ta(taF2961236992.0
abag16
(g17
g18
Ntp1531
Rp1532
(lp1533
g16
(g22
g18
Ntp1534
Rp1535
(lp1536
I3328
ag16
(g26
g18
Ntp1537
Rp1538
(lp1539
I1350917659
aI972955945
abaS'ardrone_base_link'
p1540
abaF84.0
aI3
aI11
aI-149
aI175
aI101967
aI397
aF0.08639734983444214
aF80.78363037109375
aF0.0
aF0.009999999776482582
aF9.717000007629395
aF-0.33000001311302185
aI1497
aF1645.3111572265625
aF-60.02351760864258
aF-0.0
aF-0.06032946705818176
aF-0.002600304316729307
aF0.9711738228797913
aI0
a(ta(ta(ta(ta(ta(ta(taF2961302272.0
abag16
(g17
g18
Ntp1541
Rp1542
(lp1543
g16
(g22
g18
Ntp1544
Rp1545
(lp1546
I3329
ag16
(g26
g18
Ntp1547
Rp1548
(lp1549
I1350917660
aI46162480
abaS'ardrone_base_link'
p1550
abaF84.0
aI3
aI3
aI-151
aI175
aI101944
aI397
aF0.08858663588762283
aF77.97315216064453
aF0.0
aF-0.050999999046325684
aF9.72599983215332
aF-0.2879999876022339
aI1498
aF1790.24951171875
aF-89.56038665771484
aF-0.0
aF-0.0685085728764534
aF0.005509650334715843
aF0.9647253155708313
aI0
a(ta(ta(ta(ta(ta(ta(taF2961367040.0
abag16
(g17
g18
Ntp1551
Rp1552
(lp1553
g16
(g22
g18
Ntp1554
Rp1555
(lp1556
I3330
ag16
(g26
g18
Ntp1557
Rp1558
(lp1559
I1350917660
aI112168798
abaS'ardrone_base_link'
p1560
abaF84.0
aI3
aI6
aI-146
aI174
aI101957
aI397
aF0.08925287425518036
aF75.96880340576172
aF0.0
aF-0.07000000029802322
aF9.809000015258789
aF-0.2280000001192093
aI1501
aF1861.194580078125
aF-90.28738403320312
aF-0.0
aF-0.06432726979255676
aF-0.0035339377354830503
aF0.9628773331642151
aI0
a(ta(ta(ta(ta(ta(ta(taF2961432320.0
abag16
(g17
g18
Ntp1561
Rp1562
(lp1563
g16
(g22
g18
Ntp1564
Rp1565
(lp1566
I3331
ag16
(g26
g18
Ntp1567
Rp1568
(lp1569
I1350917660
aI250663749
abaS'ardrone_base_link'
p1570
abaF84.0
aI3
aI12
aI-130
aI170
aI101963
aI397
aF0.089713916182518
aF68.5865249633789
aF0.0
aF-0.10599999874830246
aF4.38100004196167
aF-0.22300000488758087
aI1510
aF2020.4267578125
aF-3.898590564727783
aF-0.0
aF-0.07245878875255585
aF-0.005138479173183441
aF0.9831284880638123
aI0
a(ta(ta(ta(ta(ta(ta(taF2961562368.0
abag16
(g17
g18
Ntp1571
Rp1572
(lp1573
g16
(g22
g18
Ntp1574
Rp1575
(lp1576
I3332
ag16
(g26
g18
Ntp1577
Rp1578
(lp1579
I1350917660
aI387173758
abaS'ardrone_base_link'
p1580
abaF84.0
aI3
aI9
aI-105
aI157
aI101973
aI397
aF0.09586648643016815
aF47.51961898803711
aF0.0
aF-0.1120000034570694
aF-6.297999858856201
aF-0.16099999845027924
aI1516
aF1990.7406005859375
aF77.11139678955078
aF-0.0
aF-0.07810226082801819
aF0.003653092309832573
aF1.0114448070526123
aI0
a(ta(ta(ta(ta(ta(ta(taF2961692416.0
abag16
(g17
g18
Ntp1581
Rp1582
(lp1583
g16
(g22
g18
Ntp1584
Rp1585
(lp1586
I3333
ag16
(g26
g18
Ntp1587
Rp1588
(lp1589
I1350917660
aI446488538
abaS'ardrone_base_link'
p1590
abaF84.0
aI3
aI11
aI-101
aI153
aI101976
aI397
aF0.11143521964550018
aF39.177711486816406
aF0.0
aF-0.13300000131130219
aF-10.793999671936035
aF-0.10499999672174454
aI1518
aF1834.8887939453125
aF57.25090408325195
aF-0.0
aF-0.06429003924131393
aF-0.0036131564993411303
aF1.0449656248092651
aI0
a(ta(ta(ta(ta(ta(ta(taF2961757696.0
abag16
(g17
g18
Ntp1591
Rp1592
(lp1593
g16
(g22
g18
Ntp1594
Rp1595
(lp1596
I3334
ag16
(g26
g18
Ntp1597
Rp1598
(lp1599
I1350917660
aI511874663
abaS'ardrone_base_link'
p1600
abaF84.0
aI3
aI7
aI-95
aI155
aI101960
aI397
aF0.1126813068985939
aF42.41599655151367
aF0.0
aF-0.3070000112056732
aF-14.074000358581543
aF-0.11699999868869781
aI1520
aF1670.638427734375
aF3.9309563636779785
aF-0.0
aF-0.061520639806985855
aF-0.012872019782662392
aF1.0615206956863403
aI0
a(ta(ta(ta(ta(ta(ta(taF2961822720.0
abag16
(g17
g18
Ntp1601
Rp1602
(lp1603
g16
(g22
g18
Ntp1604
Rp1605
(lp1606
I3335
ag16
(g26
g18
Ntp1607
Rp1608
(lp1609
I1350917660
aI606094795
abaS'ardrone_base_link'
p1610
abaF84.0
aI3
aI9
aI-87
aI153
aI101951
aI397
aF0.11895845830440521
aF41.46241760253906
aF0.0
aF-0.6679999828338623
aF-16.201000213623047
aF-0.1289999932050705
aI1521
aF1509.300048828125
aF-16.16960906982422
aF-0.0
aF-0.04576559364795685
aF-0.012332357466220856
aF1.058602213859558
aI0
a(ta(ta(ta(ta(ta(ta(taF2961887488.0
abag16
(g17
g18
Ntp1611
Rp1612
(lp1613
g16
(g22
g18
Ntp1614
Rp1615
(lp1616
I3336
ag16
(g26
g18
Ntp1617
Rp1618
(lp1619
I1350917660
aI670742194
abaS'ardrone_base_link'
p1620
abaF84.0
aI3
aI12
aI-82
aI152
aI101995
aI397
aF0.129013329744339
aF36.67671203613281
aF0.0
aF-0.8389999866485596
aF-17.356000900268555
aF-0.11699999868869781
aI1522
aF1268.0263671875
aF-6.884565353393555
aF-0.0
aF-0.0422910712659359
aF0.006768380291759968
aF1.0545580387115479
aI0
a(ta(ta(ta(ta(ta(ta(taF2961952512.0
abag16
(g17
g18
Ntp1621
Rp1622
(lp1623
g16
(g22
g18
Ntp1624
Rp1625
(lp1626
I3337
ag16
(g26
g18
Ntp1627
Rp1628
(lp1629
I1350917660
aI866070895
abaS'ardrone_base_link'
p1630
abaF84.0
aI3
aI8
aI-84
aI152
aI101979
aI397
aF0.13668163120746613
aF32.37373733520508
aF0.0
aF-0.7139999866485596
aF-17.3439998626709
aF-0.15299999713897705
aI1522
aF1022.5819091796875
aF5.6051836013793945
aF-0.0
aF-0.03224104270339012
aF0.0024633517023175955
aF1.0467294454574585
aI0
a(ta(ta(ta(ta(ta(ta(taF2962017536.0
abag16
(g17
g18
Ntp1631
Rp1632
(lp1633
g16
(g22
g18
Ntp1634
Rp1635
(lp1636
I3338
ag16
(g26
g18
Ntp1637
Rp1638
(lp1639
I1350917660
aI886049320
abaS'ardrone_base_link'
p1640
abaF84.0
aI3
aI2
aI-82
aI158
aI101957
aI397
aF0.10457392781972885
aF42.57443618774414
aF0.0
aF0.24799999594688416
aF-15.246000289916992
aF-0.328000009059906
aI1525
aF431.5429382324219
aF21.035587310791016
aF-0.0
aF-0.0035831264685839415
aF-0.011349240317940712
aF1.02500581741333
aI0
a(ta(ta(ta(ta(ta(ta(taF2962147584.0
abag16
(g17
g18
Ntp1641
Rp1642
(lp1643
g16
(g22
g18
Ntp1644
Rp1645
(lp1646
I3339
ag16
(g26
g18
Ntp1647
Rp1648
(lp1649
I1350917660
aI908699883
abaS'ardrone_base_link'
p1650
abaF84.0
aI3
aI2
aI-92
aI154
aI101960
aI397
aF0.09999445080757141
aF44.854393005371094
aF0.0
aF0.5989999771118164
aF-13.850000381469727
aF-0.35899999737739563
aI1536
aF162.74307250976562
aF24.16885757446289
aF-0.0
aF0.013117020949721336
aF-0.010176755487918854
aF0.9981874227523804
aI0
a(ta(ta(ta(ta(ta(ta(taF2963309824.0
abag16
(g17
g18
Ntp1651
Rp1652
(lp1653
g16
(g22
g18
Ntp1654
Rp1655
(lp1656
I3340
ag16
(g26
g18
Ntp1657
Rp1658
(lp1659
I1350917660
aI950959923
abaS'ardrone_base_link'
p1660
abaF84.0
aI3
aI1
aI-95
aI159
aI101957
aI397
aF0.09867612272500992
aF46.0060920715332
aF0.0
aF0.9940000176429749
aF-12.6850004196167
aF-0.37599998712539673
aI1539
aF29.30662727355957
aF11.600651741027832
aF-0.0
aF0.018051592633128166
aF-0.013607281260192394
aF0.9951130151748657
aI0
a(ta(ta(ta(ta(ta(ta(taF2963374592.0
abag16
(g17
g18
Ntp1661
Rp1662
(lp1663
g16
(g22
g18
Ntp1664
Rp1665
(lp1666
I3341
ag16
(g26
g18
Ntp1667
Rp1668
(lp1669
I1350917661
aI6098013
abaS'ardrone_base_link'
p1670
abaF84.0
aI3
aI4
aI-94
aI154
aI101966
aI397
aF0.09748878329992294
aF46.32879638671875
aF0.0
aF1.2799999713897705
aF-11.748000144958496
aF-0.32100000977516174
aI1548
aF-62.725685119628906
aF-0.3590628504753113
aF-0.0
aF0.03185084089636803
aF-0.004355188924819231
aF0.9813982248306274
aI0
a(ta(ta(ta(ta(ta(ta(taF2963439872.0
abag16
(g17
g18
Ntp1671
Rp1672
(lp1673
g16
(g22
g18
Ntp1674
Rp1675
(lp1676
I3342
ag16
(g26
g18
Ntp1677
Rp1678
(lp1679
I1350917661
aI89564016
abaS'ardrone_base_link'
p1680
abaF84.0
aI3
aI5
aI-91
aI157
aI101960
aI397
aF0.09688287228345871
aF46.600833892822266
aF0.0
aF1.4830000400543213
aF-11.20300006866455
aF-0.23800000548362732
aI1550
aF-131.1888885498047
aF-8.591096878051758
aF-0.0
aF0.03507353737950325
aF-0.007712759543210268
aF0.9774355888366699
aI0
a(ta(ta(ta(ta(ta(ta(taF2963504896.0
abag16
(g17
g18
Ntp1681
Rp1682
(lp1683
g16
(g22
g18
Ntp1684
Rp1685
(lp1686
I3343
ag16
(g26
g18
Ntp1687
Rp1688
(lp1689
I1350917661
aI149349863
abaS'ardrone_base_link'
p1690
abaF84.0
aI3
aI-1
aI-91
aI155
aI101963
aI397
aF0.09484411031007767
aF48.66138458251953
aF0.0
aF1.6119999885559082
aF-10.798999786376953
aF-0.11800000071525574
aI1546
aF-247.23109436035156
aF-32.07049560546875
aF-0.0
aF0.046580154448747635
aF-0.004087837412953377
aF0.9768128395080566
aI0
a(ta(ta(ta(ta(ta(ta(taF2963569920.0
abag16
(g17
g18
Ntp1691
Rp1692
(lp1693
g16
(g22
g18
Ntp1694
Rp1695
(lp1696
I3344
ag16
(g26
g18
Ntp1697
Rp1698
(lp1699
I1350917661
aI206055181
abaS'ardrone_base_link'
p1700
abaF84.0
aI3
aI2
aI-96
aI154
aI101963
aI397
aF0.09230785816907883
aF52.409400939941406
aF0.0
aF1.7000000476837158
aF-10.229000091552734
aF-0.020999999716877937
aI1542
aF-413.8060607910156
aF-63.79155349731445
aF-0.0
aF0.06186814606189728
aF-0.01732141524553299
aF0.937087893486023
aI0
a(ta(ta(ta(ta(ta(ta(taF2963634944.0
abag16
(g17
g18
Ntp1701
Rp1702
(lp1703
g16
(g22
g18
Ntp1704
Rp1705
(lp1706
I3345
ag16
(g26
g18
Ntp1707
Rp1708
(lp1709
I1350917661
aI273462684
abaS'ardrone_base_link'
p1710
abaF84.0
aI3
aI5
aI-97
aI157
aI101963
aI397
aF0.09547308832406998
aF49.49274826049805
aF0.0
aF1.5959999561309814
aF-9.54699993133545
aF0.04600000008940697
aI1533
aF-372.9352722167969
aF-60.16677474975586
aF-0.0
aF0.07052919268608093
aF-0.008389875292778015
aF0.9672051668167114
aI0
a(ta(ta(ta(ta(ta(ta(taF2963699968.0
abag16
(g17
g18
Ntp1711
Rp1712
(lp1713
g16
(g22
g18
Ntp1714
Rp1715
(lp1716
I3346
ag16
(g26
g18
Ntp1717
Rp1718
(lp1719
I1350917661
aI349343202
abaS'ardrone_base_link'
p1720
abaF84.0
aI3
aI9
aI-99
aI157
aI101967
aI397
aF0.09749609231948853
aF48.5164909362793
aF0.0
aF1.2940000295639038
aF-9.0
aF0.07100000232458115
aI1528
aF-371.7966613769531
aF-68.35063171386719
aF-0.0
aF0.07678931951522827
aF-0.0053377337753772736
aF0.9868388772010803
aI0
a(ta(ta(ta(ta(ta(ta(taF2963764992.0
abag16
(g17
g18
Ntp1721
Rp1722
(lp1723
g16
(g22
g18
Ntp1724
Rp1725
(lp1726
I3347
ag16
(g26
g18
Ntp1727
Rp1728
(lp1729
I1350917661
aI426096526
abaS'ardrone_base_link'
p1730
abaF84.0
aI3
aI4
aI-102
aI156
aI101960
aI397
aF0.09962990880012512
aF47.01093292236328
aF0.0
aF0.8389999866485596
aF-8.57699966430664
aF0.07699999958276749
aI1528
aF-386.5698547363281
aF-69.16515350341797
aF-0.0
aF0.07919330149888992
aF-0.00018377388187218457
aF0.9813793301582336
aI0
a(ta(ta(ta(ta(ta(ta(taF2963830272.0
abag16
(g17
g18
Ntp1731
Rp1732
(lp1733
g16
(g22
g18
Ntp1734
Rp1735
(lp1736
I3348
ag16
(g26
g18
Ntp1737
Rp1738
(lp1739
I1350917661
aI466081185
abaS'ardrone_base_link'
p1740
abaF84.0
aI3
aI6
aI-102
aI156
aI101957
aI397
aF0.10131657868623734
aF45.36665344238281
aF0.0
aF0.35899999737739563
aF-8.342000007629395
aF-0.03799999877810478
aI1530
aF-399.12225341796875
aF-67.17202758789062
aF-0.0
aF0.08185537904500961
aF0.007629568222910166
aF0.9713135957717896
aI0
a(ta(ta(ta(ta(ta(ta(taF2963895040.0
abag16
(g17
g18
Ntp1741
Rp1742
(lp1743
g16
(g22
g18
Ntp1744
Rp1745
(lp1746
I3349
ag16
(g26
g18
Ntp1747
Rp1748
(lp1749
I1350917661
aI529973164
abaS'ardrone_base_link'
p1750
abaF84.0
aI3
aI13
aI-105
aI159
aI101967
aI397
aF0.10269636660814285
aF44.204219818115234
aF0.0
aF-0.11800000071525574
aF-7.9730000495910645
aF-0.16500000655651093
aI1537
aF-428.3897399902344
aF-69.98428344726562
aF-0.0
aF0.09318654239177704
aF0.00026627277838997543
aF0.9570114016532898
aI0
a(ta(ta(ta(ta(ta(ta(taF2963960064.0
abag16
(g17
g18
Ntp1751
Rp1752
(lp1753
g16
(g22
g18
Ntp1754
Rp1755
(lp1756
I3350
ag16
(g26
g18
Ntp1757
Rp1758
(lp1759
I1350917661
aI606070127
abaS'ardrone_base_link'
p1760
abaF84.0
aI3
aI2
aI-102
aI156
aI101960
aI397
aF0.10121383517980576
aF44.986473083496094
aF0.0
aF-0.5419999957084656
aF-7.474999904632568
aF-0.2930000126361847
aI1532
aF-563.47119140625
aF-79.04991149902344
aF-0.0
aF0.10679756104946136
aF-0.0048132603988051414
aF0.9663365483283997
aI0
a(ta(ta(ta(ta(ta(ta(taF2964025088.0
abag16
(g17
g18
Ntp1761
Rp1762
(lp1763
g16
(g22
g18
Ntp1764
Rp1765
(lp1766
I3351
ag16
(g26
g18
Ntp1767
Rp1768
(lp1769
I1350917661
aI666065921
abaS'ardrone_base_link'
p1770
abaF84.0
aI3
aI10
aI-108
aI154
aI101960
aI397
aF0.09901809692382812
aF45.80076599121094
aF0.0
aF-0.8040000200271606
aF-7.0329999923706055
aF-0.4519999921321869
aI1524
aF-661.4511108398438
aF-80.69412231445312
aF-0.0
aF0.0981362834572792
aF0.004945168271660805
aF0.9787145256996155
aI0
a(ta(ta(ta(ta(ta(ta(taF2964090112.0
abag16
(g17
g18
Ntp1771
Rp1772
(lp1773
g16
(g22
g18
Ntp1774
Rp1775
(lp1776
I3352
ag16
(g26
g18
Ntp1777
Rp1778
(lp1779
I1350917661
aI726067303
abaS'ardrone_base_link'
p1780
abaF84.0
aI3
aI9
aI-113
aI161
aI101979
aI397
aF0.10287253558635712
aF43.30139923095703
aF0.0
aF-0.8999999761581421
aF-6.6620001792907715
aF-0.5680000185966492
aI1516
aF-608.9724731445312
aF-72.62723541259766
aF-0.0
aF0.10657128691673279
aF0.003275832626968622
aF0.9590465426445007
aI0
a(ta(ta(ta(ta(ta(ta(taF2964155392.0
abag16
(g17
g18
Ntp1781
Rp1782
(lp1783
g16
(g22
g18
Ntp1784
Rp1785
(lp1786
I3353
ag16
(g26
g18
Ntp1787
Rp1788
(lp1789
I1350917661
aI786050253
abaS'ardrone_base_link'
p1790
abaF84.0
aI3
aI14
aI-104
aI160
aI101976
aI397
aF0.10530637949705124
aF41.49237823486328
aF0.0
aF-0.8399999737739563
aF-6.47599983215332
aF-0.7580000162124634
aI1508
aF-608.8264770507812
aF-55.13750076293945
aF-0.0
aF0.11053036153316498
aF-0.000406997452955693
aF0.9068394899368286
aI0
a(ta(ta(ta(ta(ta(ta(taF2964220160.0
abag16
(g17
g18
Ntp1791
Rp1792
(lp1793
g16
(g22
g18
Ntp1794
Rp1795
(lp1796
I3354
ag16
(g26
g18
Ntp1797
Rp1798
(lp1799
I1350917661
aI906049879
abaS'ardrone_base_link'
p1800
abaF84.0
aI3
aI11
aI-105
aI157
aI101960
aI397
aF0.10650679469108582
aF41.34293746948242
aF0.0
aF-0.5960000157356262
aF-6.5
aF-0.9269999861717224
aI1529
aF-668.3712768554688
aF-61.98214340209961
aF-0.0
aF0.11073218286037445
aF-0.006755571346729994
aF0.90055251121521
aI0
a(ta(ta(ta(ta(ta(ta(taF2965382400.0
abag16
(g17
g18
Ntp1801
Rp1802
(lp1803
g16
(g22
g18
Ntp1804
Rp1805
(lp1806
I3355
ag16
(g26
g18
Ntp1807
Rp1808
(lp1809
I1350917662
aI50650418
abaS'ardrone_base_link'
p1810
abaF84.0
aI3
aI8
aI-108
aI156
aI101963
aI397
aF0.10986603051424026
aF39.955326080322266
aF0.0
aF-0.44999998807907104
aF-6.589000225067139
aF-1.2079999446868896
aI1516
aF-723.108154296875
aF-68.26603698730469
aF-0.0
aF0.09781529754400253
aF-0.004081361927092075
aF0.9672451615333557
aI0
a(ta(ta(ta(ta(ta(ta(taF2965512448.0
abag16
(g17
g18
Ntp1811
Rp1812
(lp1813
g16
(g22
g18
Ntp1814
Rp1815
(lp1816
I3356
ag16
(g26
g18
Ntp1817
Rp1818
(lp1819
I1350917662
aI86033530
abaS'ardrone_base_link'
p1820
abaF84.0
aI3
aI7
aI-103
aI155
aI101973
aI397
aF0.11189564317464828
aF38.63471984863281
aF0.0
aF-0.46399998664855957
aF-6.689000129699707
aF-1.2960000038146973
aI1511
aF-713.495361328125
aF-56.8932991027832
aF-0.0
aF0.12476252764463425
aF0.0018196264281868935
aF0.9681940078735352
aI0
a(ta(ta(ta(ta(ta(ta(taF2965577728.0
abag16
(g17
g18
Ntp1821
Rp1822
(lp1823
g16
(g22
g18
Ntp1824
Rp1825
(lp1826
I3357
ag16
(g26
g18
Ntp1827
Rp1828
(lp1829
I1350917662
aI130030232
abaS'ardrone_base_link'
p1830
abaF84.0
aI3
aI10
aI-112
aI158
aI101960
aI397
aF0.11555982381105423
aF36.81141662597656
aF0.0
aF-0.43299999833106995
aF-6.988999843597412
aF-1.38100004196167
aI1503
aF-716.4324340820312
aF-50.578697204589844
aF-0.0
aF0.10156689584255219
aF0.0023307877127081156
aF0.8282800912857056
aI0
a(ta(ta(ta(ta(ta(ta(taF2965642496.0
abag16
(g17
g18
Ntp1831
Rp1832
(lp1833
g16
(g22
g18
Ntp1834
Rp1835
(lp1836
I3358
ag16
(g26
g18
Ntp1837
Rp1838
(lp1839
I1350917662
aI208464573
abaS'ardrone_base_link'
p1840
abaF84.0
aI3
aI10
aI-104
aI150
aI101960
aI397
aF0.11031462252140045
aF38.787559509277344
aF0.0
aF-0.41499999165534973
aF-7.293000221252441
aF-1.4420000314712524
aI1499
aF-747.7796020507812
aF-43.066341400146484
aF-0.0
aF0.1273001879453659
aF-0.003355341497808695
aF0.8899117112159729
aI0
a(ta(ta(ta(ta(ta(ta(taF2965707776.0
abag16
(g17
g18
Ntp1841
Rp1842
(lp1843
g16
(g22
g18
Ntp1844
Rp1845
(lp1846
I3359
ag16
(g26
g18
Ntp1847
Rp1848
(lp1849
I1350917662
aI390918053
abaS'ardrone_base_link'
p1850
abaF84.0
aI3
aI10
aI-106
aI156
aI101963
aI397
aF0.10461127758026123
aF41.1527099609375
aF0.0
aF-0.34700000286102295
aF-7.5879998207092285
aF-1.4910000562667847
aI1500
aF-1091.6005859375
aF-51.063453674316406
aF-0.0
aF0.13365890085697174
aF0.0031318385154008865
aF0.9373747110366821
aI0
a(ta(ta(ta(ta(ta(ta(taF2965773056.0
abag16
(g17
g18
Ntp1851
Rp1852
(lp1853
g16
(g22
g18
Ntp1854
Rp1855
(lp1856
I3360
ag16
(g26
g18
Ntp1857
Rp1858
(lp1859
I1350917662
aI414880161
abaS'ardrone_base_link'
p1860
abaF84.0
aI3
aI7
aI-105
aI155
aI101976
aI397
aF0.09801799803972244
aF44.08795166015625
aF0.0
aF-0.12999999523162842
aF-8.133000373840332
aF-1.5470000505447388
aI1489
aF-1346.0838623046875
aF-51.738765716552734
aF-0.0
aF0.13479503989219666
aF-0.009382659569382668
aF0.9952968955039978
aI0
a(ta(ta(ta(ta(ta(ta(taF2965902848.0
abag16
(g17
g18
Ntp1861
Rp1862
(lp1863
g16
(g22
g18
Ntp1864
Rp1865
(lp1866
I3361
ag16
(g26
g18
Ntp1867
Rp1868
(lp1869
I1350917662
aI494147165
abaS'ardrone_base_link'
p1870
abaF84.0
aI3
aI8
aI-102
aI158
aI101976
aI397
aF0.09682361781597137
aF45.60550308227539
aF0.0
aF-0.07400000095367432
aF-8.237000465393066
aF-1.5369999408721924
aI1485
aF-1405.112060546875
aF-70.52754211425781
aF-0.0
aF0.14209942519664764
aF-0.0011609467910602689
aF0.9814016819000244
aI0
a(ta(ta(ta(ta(ta(ta(taF2965968128.0
abag16
(g17
g18
Ntp1871
Rp1872
(lp1873
g16
(g22
g18
Ntp1874
Rp1875
(lp1876
I3362
ag16
(g26
g18
Ntp1877
Rp1878
(lp1879
I1350917662
aI529127276
abaS'ardrone_base_link'
p1880
abaF84.0
aI3
aI10
aI-100
aI152
aI101960
aI397
aF0.0952427089214325
aF46.82368850708008
aF0.0
aF-0.09000000357627869
aF-8.34000015258789
aF-1.5410000085830688
aI1481
aF-1466.8603515625
aF-63.38739013671875
aF-0.0
aF0.13365596532821655
aF0.0020152702927589417
aF0.9737379550933838
aI0
a(ta(ta(ta(ta(ta(ta(taF2966032896.0
abag16
(g17
g18
Ntp1881
Rp1882
(lp1883
g16
(g22
g18
Ntp1884
Rp1885
(lp1886
I3363
ag16
(g26
g18
Ntp1887
Rp1888
(lp1889
I1350917662
aI566031872
abaS'ardrone_base_link'
p1890
abaF84.0
aI3
aI9
aI-101
aI155
aI101960
aI397
aF0.09287282079458237
aF47.967124938964844
aF0.0
aF-0.10100000351667404
aF-8.41100025177002
aF-1.5729999542236328
aI1478
aF-1519.9775390625
aF-55.1724967956543
aF-0.0
aF0.13828326761722565
aF-0.008102498948574066
aF0.9734261631965637
aI0
a(ta(ta(ta(ta(ta(ta(taF2966097920.0
abag16
(g17
g18
Ntp1891
Rp1892
(lp1893
g16
(g22
g18
Ntp1894
Rp1895
(lp1896
I3364
ag16
(g26
g18
Ntp1897
Rp1898
(lp1899
I1350917662
aI649013596
abaS'ardrone_base_link'
p1900
abaF84.0
aI3
aI10
aI-104
aI158
aI101985
aI397
aF0.09167540818452835
aF49.621864318847656
aF0.0
aF-0.050999999046325684
aF-8.496000289916992
aF-1.5829999446868896
aI1474
aF-1565.43994140625
aF-64.4840316772461
aF-0.0
aF0.14332233369350433
aF-0.008351041935384274
aF0.9643502235412598
aI0
a(ta(ta(ta(ta(ta(ta(taF2966162944.0
abag16
(g17
g18
Ntp1901
Rp1902
(lp1903
g16
(g22
g18
Ntp1904
Rp1905
(lp1906
I3365
ag16
(g26
g18
Ntp1907
Rp1908
(lp1909
I1350917662
aI706046224
abaS'ardrone_base_link'
p1910
abaF84.0
aI3
aI9
aI-103
aI155
aI101982
aI397
aF0.09001248329877853
aF51.53245544433594
aF0.0
aF-0.027000000700354576
aF-8.515000343322754
aF-1.5839999914169312
aI1477
aF-1617.5452880859375
aF-68.00064086914062
aF-0.0
aF0.13982418179512024
aF-0.0018643655348569155
aF0.9664579033851624
aI0
a(ta(ta(ta(ta(ta(ta(taF2966227968.0
abag16
(g17
g18
Ntp1911
Rp1912
(lp1913
g16
(g22
g18
Ntp1914
Rp1915
(lp1916
I3366
ag16
(g26
g18
Ntp1917
Rp1918
(lp1919
I1350917662
aI766185859
abaS'ardrone_base_link'
p1920
abaF84.0
aI3
aI7
aI-103
aI159
aI101973
aI397
aF0.08819141983985901
aF52.9972038269043
aF0.0
aF0.007000000216066837
aF-8.545000076293945
aF-1.5889999866485596
aI1474
aF-1667.4852294921875
aF-58.237152099609375
aF-0.0
aF0.14783558249473572
aF-0.01352621614933014
aF0.9251947402954102
aI0
a(ta(ta(ta(ta(ta(ta(taF2966293248.0
abag16
(g17
g18
Ntp1921
Rp1922
(lp1923
g16
(g22
g18
Ntp1924
Rp1925
(lp1926
I3367
ag16
(g26
g18
Ntp1927
Rp1928
(lp1929
I1350917662
aI851878432
abaS'ardrone_base_link'
p1930
abaF84.0
aI3
aI10
aI-104
aI160
aI101970
aI397
aF0.08708126842975616
aF53.951900482177734
aF0.0
aF0.07500000298023224
aF-8.588000297546387
aF-1.6139999628067017
aI1474
aF-1692.273681640625
aF-55.44485092163086
aF-0.0
aF0.14879187941551208
aF-0.005568671505898237
aF0.9284092783927917
aI0
a(ta(ta(ta(ta(ta(ta(taF2966358016.0
abag16
(g17
g18
Ntp1931
Rp1932
(lp1933
g16
(g22
g18
Ntp1934
Rp1935
(lp1936
I3368
ag16
(g26
g18
Ntp1937
Rp1938
(lp1939
I1350917662
aI906051110
abaS'ardrone_base_link'
p1940
abaF84.0
aI3
aI3
aI-101
aI159
aI101957
aI397
aF0.08693000674247742
aF55.427310943603516
aF0.0
aF0.08500000089406967
aF-8.616000175476074
aF-1.562999963760376
aI1475
aF-1727.17578125
aF-61.71366500854492
aF-0.0
aF0.15495148301124573
aF-0.0056988573633134365
aF0.9309911131858826
aI0
a(ta(ta(ta(ta(ta(ta(taF2967520256.0
abag16
(g17
g18
Ntp1941
Rp1942
(lp1943
g16
(g22
g18
Ntp1944
Rp1945
(lp1946
I3369
ag16
(g26
g18
Ntp1947
Rp1948
(lp1949
I1350917662
aI966138938
abaS'ardrone_base_link'
p1950
abaF84.0
aI3
aI11
aI-95
aI157
aI101948
aI397
aF0.08557015657424927
aF58.56956100463867
aF0.0
aF0.06400000303983688
aF-8.67199993133545
aF-1.5149999856948853
aI1475
aF-1821.592041015625
aF-66.84207916259766
aF-0.0
aF0.15376253426074982
aF-0.009496035985648632
aF0.9276455640792847
aI0
a(ta(ta(ta(ta(ta(ta(taF2967585280.0
abag16
(g17
g18
Ntp1951
Rp1952
(lp1953
g16
(g22
g18
Ntp1954
Rp1955
(lp1956
I3370
ag16
(g26
g18
Ntp1957
Rp1958
(lp1959
I1350917663
aI52332061
abaS'ardrone_base_link'
p1960
abaF84.0
aI3
aI10
aI-102
aI162
aI101973
aI397
aF0.08450498431921005
aF60.99430847167969
aF0.0
aF0.09799999743700027
aF-8.602999687194824
aF-1.4819999933242798
aI1477
aF-1870.836181640625
aF-48.15963363647461
aF-0.0
aF0.14967980980873108
aF-0.013763897120952606
aF0.9720730781555176
aI0
a(ta(ta(ta(ta(ta(ta(taF2967650304.0
abag16
(g17
g18
Ntp1961
Rp1962
(lp1963
g16
(g22
g18
Ntp1964
Rp1965
(lp1966
I3371
ag16
(g26
g18
Ntp1967
Rp1968
(lp1969
I1350917663
aI102884846
abaS'ardrone_base_link'
p1970
abaF84.0
aI3
aI7
aI-103
aI159
aI101963
aI397
aF0.08351634442806244
aF64.06108856201172
aF0.0
aF0.1809999942779541
aF-8.53600025177002
aF-1.3969999551773071
aI1477
aF-1941.4058837890625
aF-35.2289924621582
aF-0.0
aF0.16107319295406342
aF-0.008658727630972862
aF0.9655415415763855
aI0
a(ta(ta(ta(ta(ta(ta(taF2967715328.0
abasS'vz'
p1971
(lp1972
sS'al'
p1973
(lp1974
I701
aI702
aI709
aI713
aI716
aI716
aI718
aI723
aI724
aI725
aI723
aI722
aI722
aI721
aI719
aI719
aI720
aI721
aI723
aI722
aI722
aI722
aI721
aI718
aI716
aI715
aI714
aI712
aI709
aI706
aI703
aI709
aI775
aI813
aI851
aI889
aI932
aI975
aI1023
aI1068
aI1113
aI1156
aI1199
aI1239
aI1274
aI1297
aI1319
aI1331
aI1344
aI1355
aI1361
aI1367
aI1368
aI1368
aI1367
aI1365
aI1364
aI1363
aI1361
aI1362
aI1362
aI1366
aI1374
aI1377
aI1382
aI1386
aI1390
aI1399
aI1404
aI1415
aI1421
aI1429
aI1445
aI1453
aI1460
aI1465
aI1472
aI1480
aI1485
aI1487
aI1491
aI1493
aI1501
aI1503
aI1504
aI1505
aI1506
aI1517
aI1540
aI1544
aI1546
aI1550
aI1541
aI1535
aI1529
aI1516
aI1508
aI1499
aI1494
aI1490
aI1485
aI1481
aI1476
aI1474
aI1473
aI1473
aI1489
aI1490
aI1496
aI1503
aI1506
aI1510
aI1512
aI1513
aI1512
aI1511
aI1517
aI1528
aI1537
aI1544
aI1577
aI1578
aI1577
aI1576
aI1569
aI1558
aI1541
aI1524
aI1492
aI1480
aI1467
aI1459
aI1454
aI1450
aI1448
aI1447
aI1447
aI1450
aI1454
aI1455
aI1456
aI1460
aI1464
aI1469
aI1473
aI1479
aI1490
aI1494
aI1490
aI1491
aI1494
aI1497
aI1498
aI1501
aI1510
aI1516
aI1518
aI1520
aI1521
aI1522
aI1522
aI1525
aI1536
aI1539
aI1548
aI1550
aI1546
aI1542
aI1533
aI1528
aI1528
aI1530
aI1537
aI1532
aI1524
aI1516
aI1508
aI1529
aI1516
aI1511
aI1503
aI1499
aI1500
aI1489
aI1485
aI1481
aI1478
aI1474
aI1477
aI1474
aI1474
aI1475
aI1475
aI1477
aI1477
asa(dp1975
S'tw'
p1976
(lp1977
g16
(cgeometry_msgs.msg._Twist
Twist
p1978
g18
Ntp1979
Rp1980
(lp1981
g16
(cgeometry_msgs.msg._Vector3
Vector3
p1982
g18
Ntp1983
Rp1984
(lp1985
F0.0
aF0.0
aF0.0
abag16
(g1982
g18
Ntp1986
Rp1987
(lp1988
F0.0
aF0.0
aF0.0
ababag1980
ag1980
ag1980
ag1980
ag1980
ag1980
ag1980
ag1980
ag1980
ag1980
ag1980
ag1980
ag1980
ag1980
ag1980
ag1980
ag1980
ag1980
ag1980
ag1980
ag1980
ag1980
ag1980
ag1980
ag1980
ag1980
ag1980
ag1980
ag1980
ag1980
ag1980
ag1980
ag1980
ag1980
ag1980
ag1980
ag1980
ag1980
ag1980
ag1980
ag1980
ag1980
ag1980
ag1980
ag1980
ag1980
ag1980
ag1980
ag1980
ag1980
ag1980
ag1980
ag1980
ag1980
ag1980
ag1980
ag1980
ag1980
ag1980
ag1980
ag1980
ag1980
ag1980
ag1980
ag1980
ag1980
ag1980
ag1980
ag1980
ag1980
ag1980
ag1980
ag1980
ag1980
ag1980
ag1980
ag1980
ag1980
ag1980
ag1980
ag1980
ag1980
ag1980
ag1980
ag1980
ag1980
ag1980
ag1980
ag1980
ag1980
ag1980
ag1980
ag1980
ag1980
ag1980
ag1980
ag1980
ag1980
ag1980
ag1980
ag1980
ag1980
ag1980
ag1980
ag1980
ag1980
ag1980
ag1980
ag1980
ag1980
ag1980
ag1980
ag1980
ag1980
ag1980
ag1980
ag1980
ag1980
ag1980
ag1980
ag1980
ag1980
ag1980
ag1980
ag1980
ag1980
ag1980
ag1980
ag1980
ag1980
ag1980
ag1980
ag1980
ag1980
ag1980
ag1980
ag1980
ag1980
ag1980
ag1980
ag1980
ag1980
ag1980
ag1980
ag1980
ag1980
ag1980
ag1980
ag1980
ag1980
ag1980
ag1980
ag1980
ag1980
ag1980
ag1980
ag1980
ag1980
ag1980
ag1980
ag1980
ag1980
ag1980
ag1980
ag1980
ag1980
ag1980
ag1980
ag1980
ag1980
ag1980
asg4
(lp1989
F8.069468975067139
aF8.134284973144531
aF8.200874090194702
aF8.267377138137817
aF8.333921194076538
aF8.400918960571289
aF8.467452049255371
aF8.53410005569458
aF8.600826978683472
aF8.667582988739014
aF8.734019041061401
aF8.800934076309204
aF8.86753511428833
aF8.933938980102539
aF9.00070595741272
aF9.06755018234253
aF9.134324073791504
aF9.200790166854858
aF9.267446994781494
aF9.334273099899292
aF9.400878190994263
aF9.467542171478271
aF9.533936977386475
aF9.600811958312988
aF9.667277097702026
aF9.734055995941162
aF9.800753116607666
aF9.867319107055664
aF9.934162139892578
aF10.002073049545288
aF10.06755518913269
aF10.13427996635437
aF10.200581073760986
aF10.267336130142212
aF10.333994150161743
aF10.403728008270264
aF10.467401027679443
aF10.534154176712036
aF10.600757122039795
aF10.66751217842102
aF10.734214067459106
aF10.800654172897339
aF10.867463111877441
aF10.934112071990967
aF11.000729084014893
aF11.067309141159058
aF11.133916139602661
aF11.20080304145813
aF11.267372131347656
aF11.334402084350586
aF11.400715112686157
aF11.467236042022705
aF11.534183025360107
aF11.600674152374268
aF11.66727900505066
aF11.734053134918213
aF11.800770044326782
aF11.867549180984497
aF11.934246063232422
aF12.000647068023682
aF12.067300081253052
aF12.13399600982666
aF12.200597047805786
aF12.26737117767334
aF12.334084033966064
aF12.400711059570312
aF12.467281103134155
aF12.534403085708618
aF12.600998163223267
aF12.667493104934692
aF12.73422908782959
aF12.800649166107178
aF12.867318153381348
aF12.933938980102539
aF13.000802993774414
aF13.067512035369873
aF13.134068965911865
aF13.200874090194702
aF13.267368078231812
aF13.333925008773804
aF13.400596141815186
aF13.467849969863892
aF13.534110069274902
aF13.600749015808105
aF13.667582988739014
aF13.733997106552124
aF13.80091404914856
aF13.867549180984497
aF13.934000968933105
aF14.000586032867432
aF14.06753396987915
aF14.133970975875854
aF14.201733112335205
aF14.267274141311646
aF14.33419919013977
aF14.400663137435913
aF14.46753215789795
aF14.534214973449707
aF14.600600004196167
aF14.667371034622192
aF14.734310150146484
aF14.800687074661255
aF14.867441177368164
aF14.934219121932983
aF15.000784158706665
aF15.067253112792969
aF15.13413119316101
aF15.200584173202515
aF15.268264055252075
aF15.334228038787842
aF15.400779962539673
aF15.4675931930542
aF15.534255027770996
aF15.600677967071533
aF15.667489051818848
aF15.734230995178223
aF15.800749063491821
aF15.867541074752808
aF15.934208154678345
aF16.00084400177002
aF16.067414045333862
aF16.134059190750122
aF16.200637102127075
aF16.26748514175415
aF16.33414602279663
aF16.401787042617798
aF16.46732807159424
aF16.534170150756836
aF16.601521968841553
aF16.66760015487671
aF16.73400616645813
aF16.800718069076538
aF16.86891007423401
aF16.934137105941772
aF17.001760005950928
aF17.067514181137085
aF17.13406014442444
aF17.20085597038269
aF17.267558097839355
aF17.33422017097473
aF17.400609016418457
aF17.472491025924683
aF17.53428602218628
aF17.600881099700928
aF17.667378187179565
aF17.73392415046692
aF17.800844192504883
aF17.86758518218994
aF17.933993101119995
aF18.000665187835693
aF18.06726598739624
aF18.13393807411194
aF18.200605154037476
aF18.26741600036621
aF18.334083080291748
aF18.400815963745117
aF18.46756911277771
aF18.534085035324097
aF18.600818157196045
aF18.66750717163086
aF18.73396897315979
aF18.800769090652466
aF18.867348194122314
aF18.9340181350708
aF19.000591039657593
aF19.067255973815918
aF19.134027004241943
aF19.200754165649414
aF19.26762104034424
aF19.33404517173767
aF19.400578022003174
aF19.467395067214966
asa.