(lp0
(dp1
S'ps'
p2
(lp3
F15.137999534606934
aF15.138999938964844
aF15.13700008392334
aF15.130999565124512
aF15.128999710083008
aF15.119999885559082
aF15.100000381469727
aF15.067000389099121
aF15.045999526977539
aF15.032999992370605
aF15.019000053405762
aF15.003999710083008
aF15.017000198364258
aF14.967000007629395
aF14.928000450134277
aF14.880000114440918
aF14.906000137329102
aF14.901000022888184
aF14.868000030517578
aF14.85200023651123
aF14.829999923706055
aF14.824999809265137
aF14.803999900817871
aF14.779999732971191
aF14.774999618530273
aF14.782999992370605
aF14.795000076293945
aF14.803000450134277
aF14.79800033569336
aF14.798999786376953
aF14.793999671936035
aF14.788000106811523
aF14.767999649047852
aF14.463000297546387
aF13.95199966430664
aF13.383000373840332
aF12.784000396728516
aF12.210000038146973
aF11.619000434875488
aF11.071000099182129
aF10.526000022888184
aF10.062000274658203
aF9.534000396728516
aF9.083999633789062
aF8.65999984741211
aF8.23799991607666
aF7.8480000495910645
aF7.468999862670898
aF7.114999771118164
aF6.77400016784668
aF6.453999996185303
aF6.1529998779296875
aF5.869999885559082
aF5.584000110626221
aF5.302999973297119
aF5.046000003814697
aF4.783999919891357
aF4.559000015258789
aF4.361999988555908
aF4.146999835968018
aF3.9660000801086426
aF3.677999973297119
aF3.4159998893737793
aF3.252000093460083
aF3.0840001106262207
aF2.921999931335449
aF2.7639999389648438
aF2.6070001125335693
aF2.4690001010894775
aF2.3350000381469727
aF2.2039999961853027
aF2.062999963760376
aF1.909000039100647
aF1.7549999952316284
aF1.63100004196167
aF1.5119999647140503
aF1.4110000133514404
aF1.2760000228881836
aF1.1729999780654907
aF1.069000005722046
aF0.9869999885559082
aF0.9240000247955322
aF0.8859999775886536
aF0.8149999976158142
aF0.6990000009536743
aF0.6060000061988831
aF0.5270000100135803
aF0.4390000104904175
aF0.3659999966621399
aF0.2879999876022339
aF0.23499999940395355
aF0.19200000166893005
aF0.14000000059604645
aF0.08299999684095383
aF0.013000000268220901
aF-0.061000000685453415
aF-0.12999999523162842
aF-0.20800000429153442
aF-0.2919999957084656
aF-0.2840000092983246
aF-0.3580000102519989
aF-0.41600000858306885
aF-0.46399998664855957
aF-0.5370000004768372
aF-0.5960000157356262
aF-0.6449999809265137
aF-0.6990000009536743
aF-0.7269999980926514
aF-0.7599999904632568
aF-0.7889999747276306
aF-0.7749999761581421
aF-0.7440000176429749
aF-0.703000009059906
aF-0.656000018119812
aF-0.6159999966621399
aF-0.6010000109672546
aF-0.5789999961853027
aF-0.5770000219345093
aF-0.47699999809265137
aF-0.3490000069141388
aF-0.2619999945163727
aF-0.1679999977350235
aF-0.10599999874830246
aF-0.017999999225139618
aF0.05299999937415123
aF0.0729999989271164
aF0.05400000140070915
aF0.014000000432133675
aF-0.07599999755620956
aF-0.20100000500679016
aF-0.31200000643730164
aF-0.4050000011920929
aF-0.47999998927116394
aF-0.5550000071525574
aF-0.5870000123977661
aF-0.6330000162124634
aF-0.6579999923706055
aF-0.6930000185966492
aF-0.7260000109672546
aF-0.7680000066757202
aF-0.8420000076293945
aF-0.9300000071525574
aF-1.0149999856948853
aF-1.1130000352859497
aF-1.1990000009536743
aF-1.2619999647140503
aF-1.350000023841858
aF-1.4470000267028809
aF-1.569000005722046
aF-1.6740000247955322
aF-1.7829999923706055
aF-1.871000051498413
aF-1.9730000495910645
aF-2.0309998989105225
aF-2.191999912261963
aF-2.265000104904175
aF-2.378000020980835
aF-2.51200008392334
aF-2.632999897003174
aF-2.7829999923706055
aF-2.9549999237060547
aF-3.0929999351501465
aF-3.24399995803833
aF-3.4230000972747803
aF-3.619999885559082
aF-3.796999931335449
aF-3.9509999752044678
aF-4.111999988555908
aF-4.2210001945495605
aF-4.329999923706055
aF-4.414999961853027
aF-4.48799991607666
aF-4.541999816894531
aF-4.50600004196167
aF-4.521999835968018
aF-4.434999942779541
aF-4.318999767303467
aF-4.179999828338623
aF-4.039000034332275
aF-3.8980000019073486
aF-3.744999885559082
aF-3.6029999256134033
aF-3.4820001125335693
aF-3.3450000286102295
aF-3.240999937057495
aF-3.125999927520752
aF-3.0799999237060547
aF-2.9639999866485596
aF-2.8399999141693115
aF-2.7060000896453857
aF-2.578000068664551
aF-2.4690001010894775
aF-2.36299991607666
aF-2.2730000019073486
aF-2.177999973297119
aF-2.125999927520752
aF-2.1070001125335693
aF-2.0950000286102295
aF-2.0490000247955322
aF-2.0290000438690186
aF-1.9780000448226929
aF-1.940999984741211
aF-1.871000051498413
aF-1.7710000276565552
aF-1.6649999618530273
aF-1.5740000009536743
aF-1.4800000190734863
aF-1.4299999475479126
asS'tm'
p4
(lp5
F6.021452903747559
aF6.094414949417114
aF6.174155950546265
aF6.2219178676605225
aF6.283973932266235
aF6.341485977172852
aF6.404048919677734
aF6.469344854354858
aF6.541484832763672
aF6.601377964019775
aF6.6840479373931885
aF6.749925851821899
aF6.810104846954346
aF6.8638598918914795
aF6.943859815597534
aF7.001392841339111
aF7.061462879180908
aF7.126096963882446
aF7.189530849456787
aF7.246752977371216
aF7.323994874954224
aF7.381408929824829
aF7.447865962982178
aF7.528664827346802
aF7.576835870742798
aF7.649267911911011
aF7.701444864273071
aF7.769723892211914
aF7.846255779266357
aF7.901407957077026
aF7.961464881896973
aF8.042387962341309
aF8.10197401046753
aF8.161549806594849
aF8.2216157913208
aF8.301751852035522
aF8.361682891845703
aF8.429436922073364
aF8.50168490409851
aF8.577515840530396
aF8.62558889389038
aF8.681565999984741
aF8.741883993148804
aF8.809253931045532
aF8.8817298412323
aF8.948186874389648
aF9.025163888931274
aF9.084680795669556
aF9.14155888557434
aF9.20492696762085
aF9.264166831970215
aF9.342012882232666
aF9.401418924331665
aF9.461560010910034
aF9.52157998085022
aF9.602373838424683
aF9.66174578666687
aF9.72174596786499
aF9.78565788269043
aF9.861423015594482
aF9.921804904937744
aF9.981777906417847
aF10.074174880981445
aF10.121454000473022
aF10.18724799156189
aF10.241609811782837
aF10.321677923202515
aF10.381608963012695
aF10.441500902175903
aF10.507702827453613
aF10.56898283958435
aF10.647004842758179
aF10.701497793197632
aF10.766273975372314
aF10.845059871673584
aF10.909543991088867
aF10.968185901641846
aF11.022082805633545
aF11.093154907226562
aF11.161695003509521
aF11.22170090675354
aF11.28324580192566
aF11.349776983261108
aF11.422013998031616
aF11.488763809204102
aF11.545261859893799
aF11.622931003570557
aF11.681895971298218
aF11.758480787277222
aF11.801448822021484
aF11.881680965423584
aF11.952546834945679
aF12.002896785736084
aF12.0659658908844
aF12.147266864776611
aF12.201891899108887
aF12.261587858200073
aF12.327715873718262
aF12.405532836914062
aF12.461861848831177
aF12.5275399684906
aF12.581759929656982
aF12.661638975143433
aF12.738824844360352
aF12.78184199333191
aF12.839475870132446
aF12.926584005355835
aF12.981904983520508
aF13.041738986968994
aF13.107970952987671
aF13.181562900543213
aF13.247450828552246
aF13.30623984336853
aF13.381767988204956
aF13.441532850265503
aF13.501522779464722
aF13.561563968658447
aF13.624967813491821
aF13.705191850662231
aF13.76168179512024
aF13.821711778640747
aF13.887446880340576
aF13.968422889709473
aF14.027522802352905
aF14.092114925384521
aF14.14177393913269
aF14.233596801757812
aF14.28858494758606
aF14.352736949920654
aF14.402273893356323
aF14.470554828643799
aF14.542716979980469
aF14.602101802825928
aF14.685956001281738
aF14.74150800704956
aF14.805538892745972
aF14.865644931793213
aF14.921885013580322
aF15.001415967941284
aF15.065189838409424
aF15.121636867523193
aF15.186962842941284
aF15.248909950256348
aF15.321772813796997
aF15.393399953842163
aF15.441686868667603
aF15.521703004837036
aF15.585088968276978
aF15.641936779022217
aF15.721795797348022
aF15.781587839126587
aF15.852528810501099
aF15.901888847351074
aF15.965811014175415
aF16.04143500328064
aF16.10463285446167
aF16.16510796546936
aF16.225448846817017
aF16.301546812057495
aF16.36962890625
aF16.426191806793213
aF16.501645803451538
aF16.565918922424316
aF16.621702909469604
aF16.6819109916687
aF16.75019383430481
aF16.82528781890869
aF16.881852865219116
aF16.941643953323364
aF17.028448820114136
aF17.082117795944214
aF17.144979000091553
aF17.20299196243286
aF17.282005786895752
aF17.341436862945557
aF17.405141830444336
aF17.461687803268433
aF17.52868390083313
aF17.601468801498413
aF17.661561965942383
aF17.729498863220215
aF17.81621289253235
aF17.861755847930908
aF17.92537784576416
aF18.00468397140503
aF18.061463832855225
aF18.124863862991333
aF18.18691396713257
aF18.24414086341858
aF18.32835578918457
aF18.38847279548645
aF18.4419047832489
aF18.5030198097229
aF18.58152985572815
aF18.64642596244812
aF18.707178831100464
aF18.761781930923462
aF18.84687900543213
aF18.927563905715942
aF18.961744785308838
aF19.02737784385681
aF19.101505994796753
aF19.16491985321045
aF19.225019931793213
aF19.28523087501526
aF19.36146879196167
aF19.42496085166931
aF19.485100984573364
asS'th'
p6
(lp7
F0.8939999938011169
aF1.1319999694824219
aF1.3079999685287476
aF1.3630000352859497
aF1.312000036239624
aF1.0700000524520874
aF0.7549999952316284
aF0.4059999883174896
aF0.2199999988079071
aF0.07999999821186066
aF0.07400000095367432
aF0.07500000298023224
aF0.08500000089406967
aF0.010999999940395355
aF-0.08299999684095383
aF-0.23399999737739563
aF-0.17399999499320984
aF-0.027000000700354576
aF0.06700000166893005
aF0.17299999296665192
aF0.15199999511241913
aF-0.017999999225139618
aF-0.1420000046491623
aF-0.2240000069141388
aF-0.21400000154972076
aF-0.07000000029802322
aF0.1080000028014183
aF0.2720000147819519
aF0.42100000381469727
aF0.45399999618530273
aF0.4269999861717224
aF0.2759999930858612
aF0.23800000548362732
aF0.07599999755620956
aF-0.16500000655651093
aF-0.4009999930858612
aF-0.4740000069141388
aF-0.414000004529953
aF-0.3840000033378601
aF-0.33899998664855957
aF-0.460999995470047
aF-0.3109999895095825
aF-0.16200000047683716
aF-0.16899999976158142
aF-0.1289999932050705
aF-0.09099999815225601
aF-0.09399999678134918
aF-0.0949999988079071
aF-0.08900000154972076
aF-0.027000000700354576
aF-0.050999999046325684
aF-0.014000000432133675
aF-0.06599999964237213
aF-0.023000000044703484
aF-0.0949999988079071
aF-0.1550000011920929
aF-0.20399999618530273
aF-0.22300000488758087
aF-0.18299999833106995
aF-0.19900000095367432
aF-0.20800000429153442
aF-0.2290000021457672
aF-0.19099999964237213
aF-0.27000001072883606
aF-0.29899999499320984
aF-0.25999999046325684
aF-0.2290000021457672
aF-0.21799999475479126
aF-0.18199999630451202
aF-0.19499999284744263
aF-0.17499999701976776
aF-0.11800000071525574
aF-0.11299999803304672
aF-0.07900000363588333
aF-0.09099999815225601
aF-0.050999999046325684
aF-0.041999999433755875
aF-0.08699999749660492
aF-0.12700000405311584
aF-0.1899999976158142
aF-0.24799999594688416
aF-0.2370000034570694
aF-0.2150000035762787
aF-0.2370000034570694
aF-0.257999986410141
aF-0.21400000154972076
aF-0.17000000178813934
aF-0.0860000029206276
aF-0.0689999982714653
aF-0.06599999964237213
aF-0.0729999989271164
aF-0.10300000011920929
aF-0.1340000033378601
aF-0.13600000739097595
aF-0.14399999380111694
aF-0.1809999942779541
aF-0.12399999797344208
aF-0.11100000143051147
aF-0.18700000643730164
aF-0.1469999998807907
aF-0.03200000151991844
aF0.03700000047683716
aF0.06700000166893005
aF0.039000000804662704
aF-0.004000000189989805
aF-0.09799999743700027
aF-0.25
aF-0.3160000145435333
aF-0.46399998664855957
aF-0.6290000081062317
aF-0.5870000123977661
aF-0.4690000116825104
aF-0.3409999907016754
aF-0.15000000596046448
aF-0.10499999672174454
aF0.01600000075995922
aF0.041999999433755875
aF-0.10199999809265137
aF-0.22300000488758087
aF-0.10999999940395355
aF0.17399999499320984
aF0.2370000034570694
aF0.29499998688697815
aF0.20999999344348907
aF-0.03799999877810478
aF-0.210999995470047
aF-0.40400001406669617
aF-0.5410000085830688
aF-0.48500001430511475
aF-0.36399999260902405
aF-0.26899999380111694
aF-0.18299999833106995
aF-0.12700000405311584
aF-0.07400000095367432
aF-0.125
aF-0.11400000005960464
aF-0.07000000029802322
aF-0.03099999949336052
aF0.024000000208616257
aF0.09799999743700027
aF0.18400000035762787
aF0.17100000381469727
aF0.06800000369548798
aF-0.04100000113248825
aF-0.03700000047683716
aF-0.19200000166893005
aF-0.2680000066757202
aF-0.20800000429153442
aF-0.1080000028014183
aF-0.02800000086426735
aF0.15299999713897705
aF0.16599999368190765
aF0.10100000351667404
aF0.2549999952316284
aF0.34700000286102295
aF0.28299999237060547
aF0.25999999046325684
aF0.3059999942779541
aF0.33500000834465027
aF0.3059999942779541
aF0.36000001430511475
aF0.33500000834465027
aF0.3100000023841858
aF0.23100000619888306
aF0.03500000014901161
aF-0.16500000655651093
aF-0.1770000010728836
aF-0.0729999989271164
aF-0.09300000220537186
aF-0.10000000149011612
aF-0.1899999976158142
aF-0.06499999761581421
aF-0.25200000405311584
aF-0.3659999966621399
aF-0.43700000643730164
aF-0.4309999942779541
aF-0.36399999260902405
aF-0.35899999737739563
aF-0.3330000042915344
aF-0.3269999921321869
aF-0.2680000066757202
aF-0.16899999976158142
aF-0.14000000059604645
aF-0.014999999664723873
aF0.16899999976158142
aF0.2199999988079071
aF0.1550000011920929
aF0.18299999833106995
aF0.1860000044107437
aF0.14399999380111694
aF0.22699999809265137
aF0.20399999618530273
aF0.11400000005960464
aF0.10700000077486038
aF0.14800000190734863
aF0.20800000429153442
aF0.1509999930858612
aF0.1080000028014183
aF0.1080000028014183
aF0.1420000046491623
aF0.1589999943971634
aF0.11400000005960464
aF0.21899999678134918
aF0.3479999899864197
aF0.3799999952316284
aF0.3840000033378601
aF0.30000001192092896
aF0.11599999666213989
asS'vx'
p8
(lp9
F-92.72171020507812
aF-95.54249572753906
aF-86.302001953125
aF-70.16515350341797
aF-40.949493408203125
aF-27.748788833618164
aF-16.854623794555664
aF-20.932592391967773
aF-14.867337226867676
aF-18.260845184326172
aF-17.679227828979492
aF-14.012922286987305
aF2.3194966316223145
aF4.965977668762207
aF3.4324049949645996
aF-8.382378578186035
aF-18.467323303222656
aF-21.146465301513672
aF-15.70765209197998
aF-12.91950511932373
aF-3.827005624771118
aF4.881152153015137
aF4.226334571838379
aF-1.1349129676818848
aF-9.486287117004395
aF-16.1912899017334
aF-17.32872200012207
aF-14.370948791503906
aF-3.978480339050293
aF3.09729266166687
aF19.570844650268555
aF-0.195204496383667
aF-1.725393295288086
aF-0.36689862608909607
aF-8.10287857055664
aF-33.463661193847656
aF-72.53424072265625
aF-92.51655578613281
aF-107.14073181152344
aF-118.9394302368164
aF-147.1833038330078
aF-157.49351501464844
aF-159.63253784179688
aF-158.75042724609375
aF-159.07020568847656
aF-143.7803955078125
aF-141.2318115234375
aF-129.98619079589844
aF-130.23106384277344
aF-108.85761260986328
aF-96.27620697021484
aF-72.92247772216797
aF-70.59198760986328
aF-57.54423522949219
aF-70.50692749023438
aF-74.21633911132812
aF-65.2020263671875
aF-53.0286979675293
aF-34.975276947021484
aF-25.047409057617188
aF-8.82360553741455
aF-6.947459697723389
aF-3.726583480834961
aF7.584918022155762
aF6.240851402282715
aF9.177470207214355
aF7.61939811706543
aF3.1582958698272705
aF4.8413591384887695
aF13.51582145690918
aF15.554471969604492
aF18.300058364868164
aF20.82028579711914
aF29.427101135253906
aF22.428495407104492
aF20.76381492614746
aF27.351255416870117
aF33.46565246582031
aF35.68927764892578
aF38.82231903076172
aF40.79141616821289
aF36.5467643737793
aF35.59712600708008
aF39.36024475097656
aF32.16291046142578
aF23.540199279785156
aF29.992223739624023
aF28.029335021972656
aF29.32917022705078
aF37.623512268066406
aF46.03743362426758
aF48.50168991088867
aF49.673641204833984
aF55.59150314331055
aF48.96961975097656
aF10.676857948303223
aF-1.029994010925293
aF-0.10989896953105927
aF-3.9410126209259033
aF0.921278715133667
aF15.490574836730957
aF36.75611114501953
aF49.322601318359375
aF47.19804763793945
aF90.19618225097656
aF119.0666275024414
aF140.83587646484375
aF159.8997344970703
aF145.55140686035156
aF136.78172302246094
aF126.16752624511719
aF105.63687133789062
aF106.68949890136719
aF109.15343475341797
aF114.86771392822266
aF110.6102066040039
aF114.79816436767578
aF114.5457534790039
aF166.6003875732422
aF190.2991485595703
aF150.89634704589844
aF115.17243194580078
aF122.30765533447266
aF127.69879913330078
aF82.2538070678711
aF95.32003784179688
aF105.77153015136719
aF91.7219009399414
aF79.11711883544922
aF64.7011947631836
aF46.53860092163086
aF25.19673728942871
aF39.626731872558594
aF49.24239730834961
aF62.80302810668945
aF55.18229675292969
aF50.352481842041016
aF58.66635513305664
aF56.32049560546875
aF50.301937103271484
aF63.36455535888672
aF67.66620635986328
aF56.302188873291016
aF41.633907318115234
aF63.86726379394531
aF36.5733642578125
aF24.106597900390625
aF24.28545379638672
aF35.12964630126953
aF27.595556259155273
aF33.889137268066406
aF41.60185623168945
aF36.416446685791016
aF13.871442794799805
aF34.67755889892578
aF28.691213607788086
aF20.155174255371094
aF22.19888687133789
aF19.78333282470703
aF23.42013931274414
aF41.65739822387695
aF40.8882942199707
aF34.70778274536133
aF67.37532043457031
aF43.433109283447266
aF-46.47025680541992
aF-17.89950180053711
aF51.2512321472168
aF12.54955768585205
aF-19.33439064025879
aF3.056576728820801
aF41.13050079345703
aF61.71607971191406
aF70.00068664550781
aF74.58097839355469
aF68.83527374267578
aF84.25812530517578
aF95.83106994628906
aF93.57691192626953
aF76.09445190429688
aF83.53972625732422
aF81.42530822753906
aF41.18460464477539
aF36.64178466796875
aF69.56552124023438
aF77.2967758178711
aF67.63450622558594
aF63.63829040527344
aF53.760738372802734
aF44.41884231567383
aF40.07856369018555
aF53.70063781738281
aF80.74230194091797
aF78.95397186279297
aF85.68251037597656
aF80.80831146240234
aF78.47278594970703
aF90.64485931396484
aF98.6055679321289
aF82.38826751708984
aF76.1322250366211
aF29.658082962036133
aF11.268881797790527
aF18.61490821838379
aF27.211328506469727
aF31.412057876586914
aF38.063995361328125
aF22.331642150878906
asS'vy'
p10
(lp11
F-11.444756507873535
aF2.2550525665283203
aF13.892778396606445
aF17.834482192993164
aF15.63369369506836
aF14.842097282409668
aF14.980388641357422
aF6.7175469398498535
aF7.773977756500244
aF4.793876647949219
aF6.1828999519348145
aF-5.150233268737793
aF2.250697135925293
aF6.6816534996032715
aF12.764507293701172
aF14.762423515319824
aF9.039034843444824
aF0.23200297355651855
aF-3.000016212463379
aF-3.8690085411071777
aF-6.7253618240356445
aF-7.249144077301025
aF-5.268648624420166
aF-6.848097801208496
aF-7.878104209899902
aF-11.614349365234375
aF-10.74764633178711
aF-9.580635070800781
aF-8.70938491821289
aF-6.326285362243652
aF-0.9859694242477417
aF1.293933629989624
aF-6.5427703857421875
aF8.681601524353027
aF30.164247512817383
aF31.59575843811035
aF43.096649169921875
aF42.85969543457031
aF49.43388366699219
aF50.325592041015625
aF52.47300720214844
aF68.96297454833984
aF94.79732513427734
aF84.5202865600586
aF97.79888153076172
aF98.01061248779297
aF92.48578643798828
aF97.45132446289062
aF90.91034698486328
aF65.70030975341797
aF41.34456253051758
aF34.238651275634766
aF21.70586585998535
aF27.14788055419922
aF-1.1641203165054321
aF-3.1784017086029053
aF-30.165264129638672
aF-33.30739212036133
aF-46.071083068847656
aF-65.1008071899414
aF-69.62621307373047
aF-68.07618713378906
aF-77.66509246826172
aF-76.04212188720703
aF-94.64998626708984
aF-112.89307403564453
aF-107.52708435058594
aF-117.33345794677734
aF-115.85604858398438
aF-128.09716796875
aF-127.89627075195312
aF-129.0560760498047
aF-118.9013900756836
aF-121.1506576538086
aF-111.8273696899414
aF-118.24397277832031
aF-119.30715942382812
aF-110.31470489501953
aF-101.42090606689453
aF-90.64999389648438
aF-84.47875213623047
aF-90.58074951171875
aF-90.71260833740234
aF-95.0149154663086
aF-98.44291687011719
aF-100.41368103027344
aF-94.78711700439453
aF-78.0141830444336
aF-65.82618713378906
aF-83.52098083496094
aF-106.42784881591797
aF-107.7077407836914
aF-105.92231750488281
aF-116.13560485839844
aF-101.33901977539062
aF-83.02657318115234
aF-127.76624298095703
aF-214.46670532226562
aF-286.5697326660156
aF-367.467041015625
aF-431.6298828125
aF-505.6162109375
aF-609.376708984375
aF-689.4348754882812
aF-933.630126953125
aF-1110.86962890625
aF-1212.7247314453125
aF-1304.600341796875
aF-1339.5291748046875
aF-1402.203369140625
aF-1437.6817626953125
aF-1487.13232421875
aF-1497.343017578125
aF-1490.713134765625
aF-1504.2998046875
aF-1523.3505859375
aF-1524.4246826171875
aF-1499.706787109375
aF-1527.9072265625
aF-1592.7490234375
aF-1472.0677490234375
aF-1463.27734375
aF-1369.6318359375
aF-1162.0115966796875
aF-926.7781982421875
aF-706.8894653320312
aF-499.7845764160156
aF-318.1553649902344
aF-118.04481506347656
aF15.993483543395996
aF145.67333984375
aF265.86810302734375
aF397.5082702636719
aF510.2674865722656
aF607.6776733398438
aF683.6550903320312
aF746.8671875
aF838.3143310546875
aF908.7267456054688
aF955.1528930664062
aF984.4280395507812
aF1035.8304443359375
aF1054.8477783203125
aF1073.3798828125
aF1077.133544921875
aF1136.900146484375
aF1137.4114990234375
aF1179.082763671875
aF1226.2120361328125
aF1354.4808349609375
aF1450.558837890625
aF1511.4189453125
aF1549.4915771484375
aF1546.12353515625
aF1572.9698486328125
aF1559.43408203125
aF1599.625
aF1600.1126708984375
aF1589.7078857421875
aF1590.4935302734375
aF1611.70166015625
aF1616.8245849609375
aF1585.979736328125
aF1590.1287841796875
aF1705.981201171875
aF1718.2969970703125
aF1678.2362060546875
aF1586.090087890625
aF1387.793701171875
aF1155.8843994140625
aF933.3920288085938
aF736.3798828125
aF559.558837890625
aF399.894287109375
aF242.2723846435547
aF105.0047607421875
aF-14.15804672241211
aF-140.8293914794922
aF-215.0211639404297
aF-329.4966735839844
aF-404.4871520996094
aF-483.6593322753906
aF-553.1340942382812
aF-600.2997436523438
aF-654.3222045898438
aF-717.6765747070312
aF-755.076171875
aF-810.4720458984375
aF-850.3177490234375
aF-906.655029296875
aF-974.769287109375
aF-1029.004638671875
aF-1095.45703125
aF-1137.90380859375
aF-1168.294677734375
aF-1235.2713623046875
aF-1230.0914306640625
aF-1224.577392578125
aF-1293.6419677734375
aF-1321.637939453125
aF-1529.586669921875
aF-1644.8572998046875
aF-1710.7939453125
aF-1719.558349609375
aF-1705.161376953125
aF-1684.4554443359375
aF-1693.319580078125
aF-1657.198974609375
asS'ph'
p12
(lp13
F-0.9190000295639038
aF-0.7820000052452087
aF-0.597000002861023
aF-0.41100001335144043
aF-0.3100000023841858
aF-0.24199999868869781
aF-0.210999995470047
aF-0.17800000309944153
aF-0.2590000033378601
aF-0.3230000138282776
aF-0.42500001192092896
aF-0.38199999928474426
aF-0.4259999990463257
aF-0.4169999957084656
aF-0.2840000092983246
aF-0.1509999930858612
aF0.009999999776482582
aF-0.04500000178813934
aF-0.09700000286102295
aF-0.16300000250339508
aF-0.23999999463558197
aF-0.31299999356269836
aF-0.3190000057220459
aF-0.2930000126361847
aF-0.3100000023841858
aF-0.335999995470047
aF-0.3799999952316284
aF-0.42399999499320984
aF-0.37400001287460327
aF-0.3630000054836273
aF-0.38100001215934753
aF-0.33000001311302185
aF-0.257999986410141
aF-0.13699999451637268
aF0.05999999865889549
aF0.22599999606609344
aF0.28299999237060547
aF0.4000000059604645
aF0.421999990940094
aF0.42899999022483826
aF0.3880000114440918
aF0.3149999976158142
aF0.2549999952316284
aF0.19900000095367432
aF0.17299999296665192
aF0.15399999916553497
aF0.11299999803304672
aF0.13300000131130219
aF0.20399999618530273
aF0.2160000056028366
aF0.15399999916553497
aF0.0989999994635582
aF0.029999999329447746
aF-0.02199999988079071
aF0.010999999940395355
aF0.008999999612569809
aF0.029999999329447746
aF-0.020999999716877937
aF-0.007000000216066837
aF-0.029999999329447746
aF-0.08699999749660492
aF-0.057999998331069946
aF-0.03500000014901161
aF0.01899999938905239
aF0.06599999964237213
aF0.03999999910593033
aF0.03099999949336052
aF0.09300000220537186
aF0.17599999904632568
aF0.15800000727176666
aF0.09799999743700027
aF0.03200000151991844
aF-0.09399999678134918
aF-0.10000000149011612
aF-0.08299999684095383
aF-0.02800000086426735
aF-0.08699999749660492
aF-0.12700000405311584
aF-0.1720000058412552
aF-0.10000000149011612
aF-0.052000001072883606
aF-0.03099999949336052
aF-0.0020000000949949026
aF0.0
aF0.013000000268220901
aF0.04899999871850014
aF0.03099999949336052
aF0.03200000151991844
aF0.039000000804662704
aF0.07699999958276749
aF0.054999999701976776
aF-0.09000000357627869
aF-0.1899999976158142
aF-0.15600000321865082
aF0.968999981880188
aF3.3459999561309814
aF5.959000110626221
aF8.156000137329102
aF9.744000434875488
aF10.574000358581543
aF10.930999755859375
aF11.052000045776367
aF11.03499984741211
aF10.895000457763672
aF10.769000053405762
aF10.689000129699707
aF10.512999534606934
aF10.345999717712402
aF10.213000297546387
aF10.215999603271484
aF10.147000312805176
aF10.123000144958496
aF9.996000289916992
aF9.961000442504883
aF9.880999565124512
aF9.95300006866455
aF9.942000389099121
aF9.282999992370605
aF5.88100004196167
aF0.7490000128746033
aF-4.510000228881836
aF-9.064000129699707
aF-12.399999618530273
aF-14.347000122070312
aF-15.027000427246094
aF-14.82800006866455
aF-14.194000244140625
aF-13.326000213623047
aF-12.52400016784668
aF-11.744000434875488
aF-11.062000274658203
aF-10.45300006866455
aF-9.897000312805176
aF-9.465999603271484
aF-9.230999946594238
aF-9.008999824523926
aF-8.767999649047852
aF-8.54800033569336
aF-8.34000015258789
aF-8.175000190734863
aF-8.015999794006348
aF-7.8979997634887695
aF-7.789000034332275
aF-7.801000118255615
aF-7.889999866485596
aF-8.0600004196167
aF-8.168000221252441
aF-8.284000396728516
aF-8.388999938964844
aF-8.555999755859375
aF-8.63599967956543
aF-8.736000061035156
aF-8.786999702453613
aF-8.973999977111816
aF-9.144000053405762
aF-9.166999816894531
aF-9.23799991607666
aF-9.288000106811523
aF-9.333999633789062
aF-9.286999702453613
aF-9.3100004196167
aF-9.270999908447266
aF-9.32699966430664
aF-9.12600040435791
aF-6.677000045776367
aF-1.840000033378601
aF3.3570001125335693
aF8.112000465393066
aF11.734999656677246
aF13.99899959564209
aF14.800000190734863
aF14.41100025177002
aF13.569000244140625
aF12.678999900817871
aF11.876999855041504
aF11.1850004196167
aF10.597000122070312
aF10.10099983215332
aF9.565999984741211
aF9.13700008392334
aF8.772000312805176
aF8.57699966430664
aF8.465999603271484
aF8.241999626159668
aF8.17300033569336
aF8.11299991607666
aF7.953999996185303
aF7.940000057220459
aF8.062999725341797
aF8.095000267028809
aF8.095999717712402
aF8.090999603271484
aF8.175999641418457
aF8.35200023651123
aF8.472999572753906
aF8.588000297546387
aF8.621000289916992
aF8.727999687194824
aF8.814000129699707
aF8.842000007629395
aF8.805000305175781
aF8.847000122070312
aF8.970999717712402
aF9.0600004196167
aF9.069000244140625
aF9.01200008392334
aF9.03600025177002
aF8.954000473022461
asS'nd'
p14
(lp15
ccopy_reg
_reconstructor
p16
(cdynamics.msg._Navdata
Navdata
p17
c__builtin__
object
p18
Ntp19
Rp20
(lp21
g16
(cstd_msgs.msg._Header
Header
p22
g18
Ntp23
Rp24
(lp25
I8722
ag16
(cgenpy.rostime
Time
p26
g18
Ntp27
Rp28
(lp29
I1350918345
aI506025235
abaS'ardrone_base_link'
p30
abaF62.0
aI6
aI-2
aI-128
aI168
aI102013
aI439
aF0.05719117447733879
aF123.49077606201172
aF0.0
aF-0.9190000295639038
aF0.8939999938011169
aF15.137999534606934
aI700
aF-92.72171020507812
aF-11.444756507873535
aF-0.0
aF0.061435285955667496
aF-0.006451608147472143
aF1.0070713758468628
aI0
a(ta(ta(ta(ta(ta(ta(taF103396616.0
abag16
(g17
g18
Ntp31
Rp32
(lp33
g16
(g22
g18
Ntp34
Rp35
(lp36
I8723
ag16
(g26
g18
Ntp37
Rp38
(lp39
I1350918345
aI578445409
abaS'ardrone_base_link'
p40
abaF62.0
aI6
aI-6
aI-124
aI168
aI101998
aI439
aF0.05770205706357956
aF123.8150634765625
aF0.0
aF-0.7820000052452087
aF1.1319999694824219
aF15.138999938964844
aI704
aF-95.54249572753906
aF2.2550525665283203
aF-0.0
aF0.05558478459715843
aF-0.006981431506574154
aF0.9778356552124023
aI0
a(ta(ta(ta(ta(ta(ta(taF103461680.0
abag16
(g17
g18
Ntp41
Rp42
(lp43
g16
(g22
g18
Ntp44
Rp45
(lp46
I8724
ag16
(g26
g18
Ntp47
Rp48
(lp49
I1350918345
aI657105529
abaS'ardrone_base_link'
p50
abaF62.0
aI6
aI-2
aI-128
aI166
aI102007
aI439
aF0.05791926756501198
aF123.7776870727539
aF0.0
aF-0.597000002861023
aF1.3079999685287476
aF15.13700008392334
aI709
aF-86.302001953125
aF13.892778396606445
aF-0.0
aF0.05553913488984108
aF-0.006064527202397585
aF0.9629355669021606
aI0
a(ta(ta(ta(ta(ta(ta(taF103526712.0
abag16
(g17
g18
Ntp51
Rp52
(lp53
g16
(g22
g18
Ntp54
Rp55
(lp56
I8725
ag16
(g26
g18
Ntp57
Rp58
(lp59
I1350918345
aI706548059
abaS'ardrone_base_link'
p60
abaF62.0
aI6
aI0
aI-124
aI160
aI101994
aI439
aF0.05800044164061546
aF123.26482391357422
aF0.0
aF-0.41100001335144043
aF1.3630000352859497
aF15.130999565124512
aI717
aF-70.16515350341797
aF17.834482192993164
aF-0.0
aF0.060036275535821915
aF-0.00630379980430007
aF0.9461426734924316
aI0
a(ta(ta(ta(ta(ta(ta(taF103591872.0
abag16
(g17
g18
Ntp61
Rp62
(lp63
g16
(g22
g18
Ntp64
Rp65
(lp66
I8726
ag16
(g26
g18
Ntp67
Rp68
(lp69
I1350918345
aI768583290
abaS'ardrone_base_link'
p70
abaF62.0
aI6
aI1
aI-123
aI165
aI102010
aI439
aF0.05775446444749832
aF122.05684661865234
aF0.0
aF-0.3100000023841858
aF1.312000036239624
aF15.128999710083008
aI722
aF-40.949493408203125
aF15.63369369506836
aF-0.0
aF0.049907196313142776
aF-0.006565023213624954
aF0.9309841990470886
aI0
a(ta(ta(ta(ta(ta(ta(taF103656872.0
abag16
(g17
g18
Ntp71
Rp72
(lp73
g16
(g22
g18
Ntp74
Rp75
(lp76
I8727
ag16
(g26
g18
Ntp77
Rp78
(lp79
I1350918345
aI826029626
abaS'ardrone_base_link'
p80
abaF62.0
aI6
aI-9
aI-121
aI167
aI102007
aI439
aF0.057985350489616394
aF121.57659149169922
aF0.0
aF-0.24199999868869781
aF1.0700000524520874
aF15.119999885559082
aI727
aF-27.748788833618164
aF14.842097282409668
aF-0.0
aF0.05591941997408867
aF-0.01179285068064928
aF0.9446389675140381
aI0
a(ta(ta(ta(ta(ta(ta(taF103721936.0
abag16
(g17
g18
Ntp81
Rp82
(lp83
g16
(g22
g18
Ntp84
Rp85
(lp86
I8728
ag16
(g26
g18
Ntp87
Rp88
(lp89
I1350918345
aI888545850
abaS'ardrone_base_link'
p90
abaF62.0
aI6
aI-5
aI-127
aI167
aI102001
aI439
aF0.05792587250471115
aF121.04254150390625
aF0.0
aF-0.210999995470047
aF0.7549999952316284
aF15.100000381469727
aI733
aF-16.854623794555664
aF14.980388641357422
aF-0.0
aF0.05408720299601555
aF-0.015871716663241386
aF0.930037796497345
aI0
a(ta(ta(ta(ta(ta(ta(taF104884304.0
abag16
(g17
g18
Ntp91
Rp92
(lp93
g16
(g22
g18
Ntp94
Rp95
(lp96
I8729
ag16
(g26
g18
Ntp97
Rp98
(lp99
I1350918345
aI953979446
abaS'ardrone_base_link'
p100
abaF62.0
aI6
aI-7
aI-127
aI161
aI102001
aI439
aF0.05908365175127983
aF120.54763793945312
aF0.0
aF-0.17800000309944153
aF0.4059999883174896
aF15.067000389099121
aI735
aF-20.932592391967773
aF6.7175469398498535
aF-0.0
aF0.05133796110749245
aF-0.013796684332191944
aF0.9306997060775757
aI0
a(ta(ta(ta(ta(ta(ta(taF104949248.0
abag16
(g17
g18
Ntp101
Rp102
(lp103
g16
(g22
g18
Ntp104
Rp105
(lp106
I8730
ag16
(g26
g18
Ntp107
Rp108
(lp109
I1350918346
aI26027716
abaS'ardrone_base_link'
p110
abaF62.0
aI6
aI-5
aI-123
aI165
aI102004
aI439
aF0.05936882272362709
aF120.33978271484375
aF0.0
aF-0.2590000033378601
aF0.2199999988079071
aF15.045999526977539
aI739
aF-14.867337226867676
aF7.773977756500244
aF-0.0
aF0.04623518884181976
aF-0.010424338281154633
aF0.9377695322036743
aI0
a(ta(ta(ta(ta(ta(ta(taF105014368.0
abag16
(g17
g18
Ntp111
Rp112
(lp113
g16
(g22
g18
Ntp114
Rp115
(lp116
I8731
ag16
(g26
g18
Ntp117
Rp118
(lp119
I1350918346
aI86024877
abaS'ardrone_base_link'
p120
abaF62.0
aI6
aI-4
aI-120
aI168
aI101998
aI439
aF0.06031985208392143
aF120.03218841552734
aF0.0
aF-0.3230000138282776
aF0.07999999821186066
aF15.032999992370605
aI740
aF-18.260845184326172
aF4.793876647949219
aF-0.0
aF0.05207747966051102
aF-0.014958280138671398
aF0.9379664063453674
aI0
a(ta(ta(ta(ta(ta(ta(taF105079432.0
abag16
(g17
g18
Ntp121
Rp122
(lp123
g16
(g22
g18
Ntp124
Rp125
(lp126
I8732
ag16
(g26
g18
Ntp127
Rp128
(lp129
I1350918346
aI168664344
abaS'ardrone_base_link'
p130
abaF62.0
aI6
aI-4
aI-130
aI164
aI101991
aI439
aF0.06074579805135727
aF119.48450469970703
aF0.0
aF-0.42500001192092896
aF0.07400000095367432
aF15.019000053405762
aI738
aF-17.679227828979492
aF6.1828999519348145
aF-0.0
aF0.052343662828207016
aF-0.012872286140918732
aF0.9532549381256104
aI0
a(ta(ta(ta(ta(ta(ta(taF105144432.0
abag16
(g17
g18
Ntp131
Rp132
(lp133
g16
(g22
g18
Ntp134
Rp135
(lp136
I8733
ag16
(g26
g18
Ntp137
Rp138
(lp139
I1350918346
aI234517393
abaS'ardrone_base_link'
p140
abaF62.0
aI6
aI0
aI-122
aI164
aI102004
aI439
aF0.06148510426282883
aF118.00042724609375
aF0.0
aF-0.38199999928474426
aF0.07500000298023224
aF15.003999710083008
aI737
aF-14.012922286987305
aF-5.150233268737793
aF-0.0
aF0.046514544636011124
aF-0.021683242172002792
aF0.9572632908821106
aI0
a(ta(ta(ta(ta(ta(ta(taF105209560.0
abag16
(g17
g18
Ntp141
Rp142
(lp143
g16
(g22
g18
Ntp144
Rp145
(lp146
I8734
ag16
(g26
g18
Ntp147
Rp148
(lp149
I1350918346
aI294619955
abaS'ardrone_base_link'
p150
abaF62.0
aI6
aI-6
aI-128
aI166
aI101991
aI439
aF0.061155106872320175
aF117.25099182128906
aF0.0
aF-0.4259999990463257
aF0.08500000089406967
aF15.017000198364258
aI736
aF2.3194966316223145
aF2.250697135925293
aF-0.0
aF0.05211078003048897
aF-0.0032004346139729023
aF0.9491493105888367
aI0
a(ta(ta(ta(ta(ta(ta(taF105274808.0
abag16
(g17
g18
Ntp151
Rp152
(lp153
g16
(g22
g18
Ntp154
Rp155
(lp156
I8735
ag16
(g26
g18
Ntp157
Rp158
(lp159
I1350918346
aI348494168
abaS'ardrone_base_link'
p160
abaF62.0
aI6
aI-6
aI-130
aI164
aI102010
aI439
aF0.061105191707611084
aF117.2575912475586
aF0.0
aF-0.4169999957084656
aF0.010999999940395355
aF14.967000007629395
aI736
aF4.965977668762207
aF6.6816534996032715
aF-0.0
aF0.05576036125421524
aF-0.004940538201481104
aF0.9229475855827332
aI0
a(ta(ta(ta(ta(ta(ta(taF105339712.0
abag16
(g17
g18
Ntp161
Rp162
(lp163
g16
(g22
g18
Ntp164
Rp165
(lp166
I8736
ag16
(g26
g18
Ntp167
Rp168
(lp169
I1350918346
aI428457752
abaS'ardrone_base_link'
p170
abaF62.0
aI6
aI-5
aI-125
aI159
aI101994
aI439
aF0.060818735510110855
aF117.36637878417969
aF0.0
aF-0.2840000092983246
aF-0.08299999684095383
aF14.928000450134277
aI737
aF3.4324049949645996
aF12.764507293701172
aF-0.0
aF0.05489799752831459
aF-0.006079275161027908
aF0.9314484596252441
aI0
a(ta(ta(ta(ta(ta(ta(taF105404720.0
abag16
(g17
g18
Ntp171
Rp172
(lp173
g16
(g22
g18
Ntp174
Rp175
(lp176
I8737
ag16
(g26
g18
Ntp177
Rp178
(lp179
I1350918346
aI486026664
abaS'ardrone_base_link'
p180
abaF62.0
aI6
aI-5
aI-123
aI165
aI102001
aI439
aF0.061347369104623795
aF118.29515075683594
aF0.0
aF-0.1509999930858612
aF-0.23399999737739563
aF14.880000114440918
aI737
aF-8.382378578186035
aF14.762423515319824
aF-0.0
aF0.048814352601766586
aF-0.0016948351403698325
aF0.9518139362335205
aI0
a(ta(ta(ta(ta(ta(ta(taF105469688.0
abag16
(g17
g18
Ntp181
Rp182
(lp183
g16
(g22
g18
Ntp184
Rp185
(lp186
I8738
ag16
(g26
g18
Ntp187
Rp188
(lp189
I1350918346
aI546029420
abaS'ardrone_base_link'
p190
abaF62.0
aI6
aI-7
aI-127
aI163
aI102001
aI439
aF0.06169898062944412
aF118.34428405761719
aF0.0
aF0.009999999776482582
aF-0.17399999499320984
aF14.906000137329102
aI738
aF-18.467323303222656
aF9.039034843444824
aF-0.0
aF0.06743627786636353
aF-0.006722873076796532
aF0.9742133617401123
aI0
a(ta(ta(ta(ta(ta(ta(taF105534816.0
abag16
(g17
g18
Ntp191
Rp192
(lp193
g16
(g22
g18
Ntp194
Rp195
(lp196
I8739
ag16
(g26
g18
Ntp197
Rp198
(lp199
I1350918346
aI606158201
abaS'ardrone_base_link'
p200
abaF62.0
aI6
aI-11
aI-125
aI171
aI101988
aI439
aF0.06198282539844513
aF117.71391296386719
aF0.0
aF-0.04500000178813934
aF-0.027000000700354576
aF14.901000022888184
aI740
aF-21.146465301513672
aF0.23200297355651855
aF-0.0
aF0.0573149248957634
aF-0.007992765866219997
aF0.9579430818557739
aI0
a(ta(ta(ta(ta(ta(ta(taF105599784.0
abag16
(g17
g18
Ntp201
Rp202
(lp203
g16
(g22
g18
Ntp204
Rp205
(lp206
I8740
ag16
(g26
g18
Ntp207
Rp208
(lp209
I1350918346
aI673857797
abaS'ardrone_base_link'
p210
abaF62.0
aI6
aI-6
aI-124
aI164
aI102010
aI439
aF0.06243542581796646
aF117.23829650878906
aF0.0
aF-0.09700000286102295
aF0.06700000166893005
aF14.868000030517578
aI739
aF-15.70765209197998
aF-3.000016212463379
aF-0.0
aF0.0392516627907753
aF-0.007809594739228487
aF0.9707489609718323
aI0
a(ta(ta(ta(ta(ta(ta(taF105664880.0
abag16
(g17
g18
Ntp211
Rp212
(lp213
g16
(g22
g18
Ntp214
Rp215
(lp216
I8741
ag16
(g26
g18
Ntp217
Rp218
(lp219
I1350918346
aI731113107
abaS'ardrone_base_link'
p220
abaF62.0
aI6
aI-2
aI-122
aI164
aI101994
aI439
aF0.06335515528917313
aF117.41283416748047
aF0.0
aF-0.16300000250339508
aF0.17299999296665192
aF14.85200023651123
aI737
aF-12.91950511932373
aF-3.8690085411071777
aF-0.0
aF0.04594450443983078
aF-0.013372041285037994
aF0.9727663993835449
aI0
a(ta(ta(ta(ta(ta(ta(taF105730008.0
abag16
(g17
g18
Ntp221
Rp222
(lp223
g16
(g22
g18
Ntp224
Rp225
(lp226
I8742
ag16
(g26
g18
Ntp227
Rp228
(lp229
I1350918346
aI808610781
abaS'ardrone_base_link'
p230
abaF62.0
aI6
aI-4
aI-128
aI168
aI102004
aI439
aF0.06413289904594421
aF116.91206359863281
aF0.0
aF-0.23999999463558197
aF0.15199999511241913
aF14.829999923706055
aI737
aF-3.827005624771118
aF-6.7253618240356445
aF-0.0
aF0.05087481811642647
aF-0.008543923497200012
aF0.9652194380760193
aI0
a(ta(ta(ta(ta(ta(ta(taF105795008.0
abag16
(g17
g18
Ntp231
Rp232
(lp233
g16
(g22
g18
Ntp234
Rp235
(lp236
I8743
ag16
(g26
g18
Ntp237
Rp238
(lp239
I1350918346
aI866029665
abaS'ardrone_base_link'
p240
abaF62.0
aI6
aI0
aI-124
aI160
aI101994
aI439
aF0.06434863805770874
aF116.21427917480469
aF0.0
aF-0.31299999356269836
aF-0.017999999225139618
aF14.824999809265137
aI737
aF4.881152153015137
aF-7.249144077301025
aF-0.0
aF0.04348558560013771
aF-0.009563887491822243
aF0.9615985751152039
aI0
a(ta(ta(ta(ta(ta(ta(taF106957192.0
abag16
(g17
g18
Ntp241
Rp242
(lp243
g16
(g22
g18
Ntp244
Rp245
(lp246
I8744
ag16
(g26
g18
Ntp247
Rp248
(lp249
I1350918346
aI932554234
abaS'ardrone_base_link'
p250
abaF62.0
aI4
aI1
aI-125
aI163
aI101998
aI439
aF0.06460404396057129
aF115.75950622558594
aF0.0
aF-0.3190000057220459
aF-0.1420000046491623
aF14.803999900817871
aI737
aF4.226334571838379
aF-5.268648624420166
aF-0.0
aF0.04776430130004883
aF-0.0076325819827616215
aF0.9535585641860962
aI0
a(ta(ta(ta(ta(ta(ta(taF107022352.0
abag16
(g17
g18
Ntp251
Rp252
(lp253
g16
(g22
g18
Ntp254
Rp255
(lp256
I8745
ag16
(g26
g18
Ntp257
Rp258
(lp259
I1350918347
aI13049001
abaS'ardrone_base_link'
p260
abaF62.0
aI4
aI2
aI-126
aI166
aI102001
aI439
aF0.06500980257987976
aF115.6136703491211
aF0.0
aF-0.2930000126361847
aF-0.2240000069141388
aF14.779999732971191
aI737
aF-1.1349129676818848
aF-6.848097801208496
aF-0.0
aF0.05132891982793808
aF-0.010897907428443432
aF0.9376528859138489
aI0
a(ta(ta(ta(ta(ta(ta(taF107087288.0
abag16
(g17
g18
Ntp261
Rp262
(lp263
g16
(g22
g18
Ntp264
Rp265
(lp266
I8746
ag16
(g26
g18
Ntp267
Rp268
(lp269
I1350918347
aI61386914
abaS'ardrone_base_link'
p270
abaF62.0
aI4
aI-4
aI-122
aI168
aI101991
aI439
aF0.06567054986953735
aF115.64533233642578
aF0.0
aF-0.3100000023841858
aF-0.21400000154972076
aF14.774999618530273
aI736
aF-9.486287117004395
aF-7.878104209899902
aF-0.0
aF0.05044408142566681
aF-0.007070630323141813
aF0.8829001784324646
aI0
a(ta(ta(ta(ta(ta(ta(taF107152448.0
abag16
(g17
g18
Ntp271
Rp272
(lp273
g16
(g22
g18
Ntp274
Rp275
(lp276
I8747
ag16
(g26
g18
Ntp277
Rp278
(lp279
I1350918347
aI133755365
abaS'ardrone_base_link'
p280
abaF62.0
aI4
aI-4
aI-122
aI164
aI102004
aI439
aF0.06635505706071854
aF115.33097839355469
aF0.0
aF-0.335999995470047
aF-0.07000000029802322
aF14.782999992370605
aI734
aF-16.1912899017334
aF-11.614349365234375
aF-0.0
aF0.05793488398194313
aF-0.009321915917098522
aF0.8667541742324829
aI0
a(ta(ta(ta(ta(ta(ta(taF107217448.0
abag16
(g17
g18
Ntp281
Rp282
(lp283
g16
(g22
g18
Ntp284
Rp285
(lp286
I8748
ag16
(g26
g18
Ntp287
Rp288
(lp289
I1350918347
aI186111402
abaS'ardrone_base_link'
p290
abaF62.0
aI4
aI-4
aI-128
aI166
aI101994
aI439
aF0.06675346195697784
aF115.25153350830078
aF0.0
aF-0.3799999952316284
aF0.1080000028014183
aF14.795000076293945
aI734
aF-17.32872200012207
aF-10.74764633178711
aF-0.0
aF0.047472577542066574
aF-0.00930496770888567
aF0.9005911946296692
aI0
a(ta(ta(ta(ta(ta(ta(taF107282512.0
abag16
(g17
g18
Ntp291
Rp292
(lp293
g16
(g22
g18
Ntp294
Rp295
(lp296
I8749
ag16
(g26
g18
Ntp297
Rp298
(lp299
I1350918347
aI254174732
abaS'ardrone_base_link'
p300
abaF62.0
aI4
aI-5
aI-123
aI163
aI101991
aI439
aF0.06696991622447968
aF114.87614440917969
aF0.0
aF-0.42399999499320984
aF0.2720000147819519
aF14.803000450134277
aI732
aF-14.370948791503906
aF-9.580635070800781
aF-0.0
aF0.06668256968259811
aF-0.004682000260800123
aF0.934148371219635
aI0
a(ta(ta(ta(ta(ta(ta(taF107347576.0
abag16
(g17
g18
Ntp301
Rp302
(lp303
g16
(g22
g18
Ntp304
Rp305
(lp306
I8750
ag16
(g26
g18
Ntp307
Rp308
(lp309
I1350918347
aI329013434
abaS'ardrone_base_link'
p310
abaF62.0
aI4
aI-7
aI-127
aI167
aI102001
aI439
aF0.06602424383163452
aF113.26758575439453
aF0.0
aF-0.37400001287460327
aF0.42100000381469727
aF14.79800033569336
aI731
aF-3.978480339050293
aF-8.70938491821289
aF-0.0
aF0.07885756343603134
aF-0.011725226417183876
aF0.971038818359375
aI0
a(ta(ta(ta(ta(ta(ta(taF107412608.0
abag16
(g17
g18
Ntp311
Rp312
(lp313
g16
(g22
g18
Ntp314
Rp315
(lp316
I8751
ag16
(g26
g18
Ntp317
Rp318
(lp319
I1350918347
aI386049333
abaS'ardrone_base_link'
p320
abaF62.0
aI4
aI-2
aI-122
aI166
aI101994
aI439
aF0.06464459002017975
aF111.43681335449219
aF0.0
aF-0.3630000054836273
aF0.45399999618530273
aF14.798999786376953
aI732
aF3.09729266166687
aF-6.326285362243652
aF-0.0
aF0.075413778424263
aF-0.006189228501170874
aF0.9748103618621826
aI0
a(ta(ta(ta(ta(ta(ta(taF107477608.0
abag16
(g17
g18
Ntp321
Rp322
(lp323
g16
(g22
g18
Ntp324
Rp325
(lp326
I8752
ag16
(g26
g18
Ntp327
Rp328
(lp329
I1350918347
aI446030610
abaS'ardrone_base_link'
p330
abaF62.0
aI4
aI4
aI-120
aI164
aI102004
aI439
aF0.06325756758451462
aF109.78319549560547
aF0.0
aF-0.38100001215934753
aF0.4269999861717224
aF14.793999671936035
aI730
aF19.570844650268555
aF-0.9859694242477417
aF-0.0
aF0.05990692600607872
aF-0.005703416652977467
aF0.9706798195838928
aI0
a(ta(ta(ta(ta(ta(ta(taF107542856.0
abag16
(g17
g18
Ntp331
Rp332
(lp333
g16
(g22
g18
Ntp334
Rp335
(lp336
I8753
ag16
(g26
g18
Ntp337
Rp338
(lp339
I1350918347
aI526050113
abaS'ardrone_base_link'
p340
abaF62.0
aI4
aI3
aI-127
aI165
aI102010
aI439
aF0.06430798768997192
aF110.6829833984375
aF0.0
aF-0.33000001311302185
aF0.2759999930858612
aF14.788000106811523
aI728
aF-0.195204496383667
aF1.293933629989624
aF-0.0
aF0.04188017174601555
aF-0.006873927544802427
aF0.9722056984901428
aI0
a(ta(ta(ta(ta(ta(ta(taF107607736.0
abag16
(g17
g18
Ntp341
Rp342
(lp343
g16
(g22
g18
Ntp344
Rp345
(lp346
I8754
ag16
(g26
g18
Ntp347
Rp348
(lp349
I1350918347
aI586063001
abaS'ardrone_base_link'
p350
abaF62.0
aI4
aI-4
aI-128
aI166
aI102004
aI439
aF0.06579604744911194
aF111.12979888916016
aF0.0
aF-0.257999986410141
aF0.23800000548362732
aF14.767999649047852
aI725
aF-1.725393295288086
aF-6.5427703857421875
aF-0.0
aF0.025162246078252792
aF-0.00965623278170824
aF0.9834604263305664
aI0
a(ta(ta(ta(ta(ta(ta(taF107672952.0
abag16
(g17
g18
Ntp351
Rp352
(lp353
g16
(g22
g18
Ntp354
Rp355
(lp356
I8755
ag16
(g26
g18
Ntp357
Rp358
(lp359
I1350918347
aI646041813
abaS'ardrone_base_link'
p360
abaF62.0
aI3
aI-4
aI-126
aI168
aI102016
aI439
aF0.0654035210609436
aF110.93609619140625
aF0.0
aF-0.13699999451637268
aF0.07599999755620956
aF14.463000297546387
aI726
aF-0.36689862608909607
aF8.681601524353027
aF-0.0
aF0.04933958500623703
aF-0.01750069297850132
aF1.109898328781128
aI0
a(ta(ta(ta(ta(ta(ta(taF107737832.0
abag16
(g17
g18
Ntp361
Rp362
(lp363
g16
(g22
g18
Ntp364
Rp365
(lp366
I8756
ag16
(g26
g18
Ntp367
Rp368
(lp369
I1350918347
aI706074955
abaS'ardrone_base_link'
p370
abaF62.0
aI3
aI0
aI-126
aI164
aI102004
aI439
aF0.06435142457485199
aF111.28447723388672
aF0.0
aF0.05999999865889549
aF-0.16500000655651093
aF13.95199966430664
aI730
aF-8.10287857055664
aF30.164247512817383
aF-0.0
aF0.05040636658668518
aF-0.009356011636555195
aF1.143616795539856
aI0
a(ta(ta(ta(ta(ta(ta(taF107802896.0
abag16
(g17
g18
Ntp371
Rp372
(lp373
g16
(g22
g18
Ntp374
Rp375
(lp376
I8757
ag16
(g26
g18
Ntp377
Rp378
(lp379
I1350918347
aI786097945
abaS'ardrone_base_link'
p380
abaF62.0
aI3
aI-4
aI-128
aI168
aI102007
aI439
aF0.06469926983118057
aF111.9721908569336
aF0.0
aF0.22599999606609344
aF-0.4009999930858612
aF13.383000373840332
aI744
aF-33.463661193847656
aF31.59575843811035
aF-0.0
aF0.057011134922504425
aF-0.009702234528958797
aF1.1125274896621704
aI0
a(ta(ta(ta(ta(ta(ta(taF107868024.0
abag16
(g17
g18
Ntp381
Rp382
(lp383
g16
(g22
g18
Ntp384
Rp385
(lp386
I8758
ag16
(g26
g18
Ntp387
Rp388
(lp389
I1350918347
aI846112259
abaS'ardrone_base_link'
p390
abaF62.0
aI3
aI-4
aI-124
aI168
aI101991
aI439
aF0.06414846330881119
aF113.04987335205078
aF0.0
aF0.28299999237060547
aF-0.4740000069141388
aF12.784000396728516
aI767
aF-72.53424072265625
aF43.096649169921875
aF-0.0
aF0.06327594816684723
aF-0.0072383093647658825
aF1.1269896030426025
aI0
a(ta(ta(ta(ta(ta(ta(taF107933056.0
abag16
(g17
g18
Ntp391
Rp392
(lp393
g16
(g22
g18
Ntp394
Rp395
(lp396
I8759
ag16
(g26
g18
Ntp397
Rp398
(lp399
I1350918347
aI914048059
abaS'ardrone_base_link'
p400
abaF62.0
aI3
aI-3
aI-127
aI161
aI102007
aI439
aF0.06377863883972168
aF113.8775634765625
aF0.0
aF0.4000000059604645
aF-0.414000004529953
aF12.210000038146973
aI793
aF-92.51655578613281
aF42.85969543457031
aF-0.0
aF0.0524052157998085
aF-0.006201246287673712
aF1.0977206230163574
aI0
a(ta(ta(ta(ta(ta(ta(taF109095208.0
abag16
(g17
g18
Ntp401
Rp402
(lp403
g16
(g22
g18
Ntp404
Rp405
(lp406
I8760
ag16
(g26
g18
Ntp407
Rp408
(lp409
I1350918347
aI986051897
abaS'ardrone_base_link'
p410
abaF62.0
aI3
aI7
aI-123
aI167
aI101998
aI439
aF0.06246402859687805
aF115.4210433959961
aF0.0
aF0.421999990940094
aF-0.3840000033378601
aF11.619000434875488
aI826
aF-107.14073181152344
aF49.43388366699219
aF-0.0
aF0.05609225481748581
aF-0.0033857000526040792
aF1.069172739982605
aI0
a(ta(ta(ta(ta(ta(ta(taF109160360.0
abag16
(g17
g18
Ntp411
Rp412
(lp413
g16
(g22
g18
Ntp414
Rp415
(lp416
I8761
ag16
(g26
g18
Ntp417
Rp418
(lp419
I1350918348
aI52977991
abaS'ardrone_base_link'
p420
abaF62.0
aI3
aI-2
aI-130
aI162
aI102001
aI439
aF0.06129321828484535
aF116.248779296875
aF0.0
aF0.42899999022483826
aF-0.33899998664855957
aF11.071000099182129
aI866
aF-118.9394302368164
aF50.325592041015625
aF-0.0
aF0.05753381550312042
aF-0.005117530003190041
aF1.0387547016143799
aI0
a(ta(ta(ta(ta(ta(ta(taF109225304.0
abag16
(g17
g18
Ntp421
Rp422
(lp423
g16
(g22
g18
Ntp424
Rp425
(lp426
I8762
ag16
(g26
g18
Ntp427
Rp428
(lp429
I1350918348
aI109394781
abaS'ardrone_base_link'
p430
abaF62.0
aI3
aI-1
aI-123
aI161
aI102004
aI439
aF0.060708947479724884
aF117.9488296508789
aF0.0
aF0.3880000114440918
aF-0.460999995470047
aF10.526000022888184
aI907
aF-147.1833038330078
aF52.47300720214844
aF-0.0
aF0.05661800876259804
aF-0.013944697566330433
aF1.0123399496078491
aI0
a(ta(ta(ta(ta(ta(ta(taF109290640.0
abag16
(g17
g18
Ntp431
Rp432
(lp433
g16
(g22
g18
Ntp434
Rp435
(lp436
I8763
ag16
(g26
g18
Ntp437
Rp438
(lp439
I1350918348
aI166063226
abaS'ardrone_base_link'
p440
abaF62.0
aI3
aI1
aI-127
aI165
aI102016
aI439
aF0.06007832661271095
aF119.94673156738281
aF0.0
aF0.3149999976158142
aF-0.3109999895095825
aF10.062000274658203
aI953
aF-157.49351501464844
aF68.96297454833984
aF-0.0
aF0.053825054317712784
aF-0.01046031154692173
aF0.9721993803977966
aI0
a(ta(ta(ta(ta(ta(ta(taF109355400.0
abag16
(g17
g18
Ntp441
Rp442
(lp443
g16
(g22
g18
Ntp444
Rp445
(lp446
I8764
ag16
(g26
g18
Ntp447
Rp448
(lp449
I1350918348
aI226478622
abaS'ardrone_base_link'
p450
abaF62.0
aI3
aI1
aI-133
aI163
aI102001
aI439
aF0.05917169898748398
aF122.5998764038086
aF0.0
aF0.2549999952316284
aF-0.16200000047683716
aF9.534000396728516
aI1000
aF-159.63253784179688
aF94.79732513427734
aF-0.0
aF0.04560152068734169
aF-0.00576064782217145
aF0.9448463916778564
aI0
a(ta(ta(ta(ta(ta(ta(taF109420528.0
abag16
(g17
g18
Ntp451
Rp452
(lp453
g16
(g22
g18
Ntp454
Rp455
(lp456
I8765
ag16
(g26
g18
Ntp457
Rp458
(lp459
I1350918348
aI292114183
abaS'ardrone_base_link'
p460
abaF62.0
aI3
aI3
aI-127
aI167
aI101998
aI439
aF0.05907989665865898
aF124.0677261352539
aF0.0
aF0.19900000095367432
aF-0.16899999976158142
aF9.083999633789062
aI1043
aF-158.75042724609375
aF84.5202865600586
aF-0.0
aF0.05257513374090195
aF-0.008772659115493298
aF0.940338671207428
aI0
a(ta(ta(ta(ta(ta(ta(taF109485560.0
abag16
(g17
g18
Ntp461
Rp462
(lp463
g16
(g22
g18
Ntp464
Rp465
(lp466
I8766
ag16
(g26
g18
Ntp467
Rp468
(lp469
I1350918348
aI366052515
abaS'ardrone_base_link'
p470
abaF62.0
aI3
aI5
aI-127
aI171
aI101998
aI439
aF0.05828939750790596
aF126.52459716796875
aF0.0
aF0.17299999296665192
aF-0.1289999932050705
aF8.65999984741211
aI1089
aF-159.07020568847656
aF97.79888153076172
aF-0.0
aF0.05136070027947426
aF-0.007078520953655243
aF0.9079228639602661
aI0
a(ta(ta(ta(ta(ta(ta(taF109550592.0
abag16
(g17
g18
Ntp471
Rp472
(lp473
g16
(g22
g18
Ntp474
Rp475
(lp476
I8767
ag16
(g26
g18
Ntp477
Rp478
(lp479
I1350918348
aI431905003
abaS'ardrone_base_link'
p480
abaF62.0
aI3
aI7
aI-129
aI171
aI101979
aI439
aF0.05729061737656593
aF128.346923828125
aF0.0
aF0.15399999916553497
aF-0.09099999815225601
aF8.23799991607666
aI1133
aF-143.7803955078125
aF98.01061248779297
aF-0.0
aF0.04600908234715462
aF-0.0036194140557199717
aF0.8779378533363342
aI0
a(ta(ta(ta(ta(ta(ta(taF109615624.0
abag16
(g17
g18
Ntp481
Rp482
(lp483
g16
(g22
g18
Ntp484
Rp485
(lp486
I8768
ag16
(g26
g18
Ntp487
Rp488
(lp489
I1350918348
aI508718563
abaS'ardrone_base_link'
p490
abaF62.0
aI3
aI10
aI-126
aI164
aI101998
aI439
aF0.056918974965810776
aF130.3603057861328
aF0.0
aF0.11299999803304672
aF-0.09399999678134918
aF7.8480000495910645
aI1176
aF-141.2318115234375
aF92.48578643798828
aF-0.0
aF0.05282394587993622
aF-0.0016454544384032488
aF0.8819786310195923
aI0
a(ta(ta(ta(ta(ta(ta(taF109680776.0
abag16
(g17
g18
Ntp491
Rp492
(lp493
g16
(g22
g18
Ntp494
Rp495
(lp496
I8769
ag16
(g26
g18
Ntp497
Rp498
(lp499
I1350918348
aI569281464
abaS'ardrone_base_link'
p500
abaF62.0
aI3
aI1
aI-125
aI163
aI102001
aI439
aF0.05580497160553932
aF132.38973999023438
aF0.0
aF0.13300000131130219
aF-0.0949999988079071
aF7.468999862670898
aI1217
aF-129.98619079589844
aF97.45132446289062
aF-0.0
aF0.0495162196457386
aF-0.004102789796888828
aF0.8864447474479675
aI0
a(ta(ta(ta(ta(ta(ta(taF109745720.0
abag16
(g17
g18
Ntp501
Rp502
(lp503
g16
(g22
g18
Ntp504
Rp505
(lp506
I8770
ag16
(g26
g18
Ntp507
Rp508
(lp509
I1350918348
aI626051632
abaS'ardrone_base_link'
p510
abaF62.0
aI3
aI4
aI-132
aI164
aI101998
aI439
aF0.055707164108753204
aF134.3859100341797
aF0.0
aF0.20399999618530273
aF-0.08900000154972076
aF7.114999771118164
aI1252
aF-130.23106384277344
aF90.91034698486328
aF-0.0
aF0.05880031734704971
aF-0.009957405738532543
aF0.9121466279029846
aI0
a(ta(ta(ta(ta(ta(ta(taF109810816.0
abag16
(g17
g18
Ntp511
Rp512
(lp513
g16
(g22
g18
Ntp514
Rp515
(lp516
I8771
ag16
(g26
g18
Ntp517
Rp518
(lp519
I1350918348
aI688691230
abaS'ardrone_base_link'
p520
abaF62.0
aI3
aI7
aI-123
aI165
aI101988
aI439
aF0.05480596050620079
aF134.38516235351562
aF0.0
aF0.2160000056028366
aF-0.027000000700354576
aF6.77400016784668
aI1287
aF-108.85761260986328
aF65.70030975341797
aF-0.0
aF0.06286218762397766
aF-0.00892993900924921
aF0.9132267832756042
aI0
a(ta(ta(ta(ta(ta(ta(taF109875848.0
abag16
(g17
g18
Ntp521
Rp522
(lp523
g16
(g22
g18
Ntp524
Rp525
(lp526
I8772
ag16
(g26
g18
Ntp527
Rp528
(lp529
I1350918348
aI748576897
abaS'ardrone_base_link'
p530
abaF62.0
aI3
aI3
aI-127
aI165
aI101998
aI439
aF0.05512949079275131
aF134.22259521484375
aF0.0
aF0.15399999916553497
aF-0.050999999046325684
aF6.453999996185303
aI1318
aF-96.27620697021484
aF41.34456253051758
aF-0.0
aF0.044617507606744766
aF-0.003950436133891344
aF0.9119649529457092
aI0
a(ta(ta(ta(ta(ta(ta(taF109941000.0
abag16
(g17
g18
Ntp531
Rp532
(lp533
g16
(g22
g18
Ntp534
Rp535
(lp536
I8773
ag16
(g26
g18
Ntp537
Rp538
(lp539
I1350918348
aI826109154
abaS'ardrone_base_link'
p540
abaF62.0
aI3
aI6
aI-122
aI168
aI102001
aI439
aF0.05554978549480438
aF134.902587890625
aF0.0
aF0.0989999994635582
aF-0.014000000432133675
aF6.1529998779296875
aI1349
aF-72.92247772216797
aF34.238651275634766
aF-0.0
aF0.02956625632941723
aF-0.004896658472716808
aF0.9104303121566772
aI0
a(ta(ta(ta(ta(ta(ta(taF110005944.0
abag16
(g17
g18
Ntp541
Rp542
(lp543
g16
(g22
g18
Ntp544
Rp545
(lp546
I8774
ag16
(g26
g18
Ntp547
Rp548
(lp549
I1350918348
aI886047688
abaS'ardrone_base_link'
p550
abaF62.0
aI3
aI6
aI-124
aI168
aI101991
aI439
aF0.058066852390766144
aF136.88906860351562
aF0.0
aF0.029999999329447746
aF-0.06599999964237213
aF5.869999885559082
aI1376
aF-70.59198760986328
aF21.70586585998535
aF-0.0
aF0.025635406374931335
aF-0.005335189867764711
aF0.9075626730918884
aI0
a(ta(ta(ta(ta(ta(ta(taF111168160.0
abag16
(g17
g18
Ntp551
Rp552
(lp553
g16
(g22
g18
Ntp554
Rp555
(lp556
I8775
ag16
(g26
g18
Ntp557
Rp558
(lp559
I1350918348
aI946051826
abaS'ardrone_base_link'
p560
abaF62.0
aI3
aI6
aI-126
aI168
aI101991
aI439
aF0.060294751077890396
aF139.00648498535156
aF0.0
aF-0.02199999988079071
aF-0.023000000044703484
aF5.584000110626221
aI1400
aF-57.54423522949219
aF27.14788055419922
aF-0.0
aF0.03163965046405792
aF-0.005437940824776888
aF0.9078328013420105
aI0
a(ta(ta(ta(ta(ta(ta(taF111233128.0
abag16
(g17
g18
Ntp561
Rp562
(lp563
g16
(g22
g18
Ntp564
Rp565
(lp566
I8776
ag16
(g26
g18
Ntp567
Rp568
(lp569
I1350918349
aI6070482
abaS'ardrone_base_link'
p570
abaF62.0
aI3
aI3
aI-127
aI173
aI101985
aI439
aF0.06538564711809158
aF141.23622131347656
aF0.0
aF0.010999999940395355
aF-0.0949999988079071
aF5.302999973297119
aI1425
aF-70.50692749023438
aF-1.1641203165054321
aF-0.0
aF0.013669914565980434
aF-0.006788287311792374
aF0.9132921695709229
aI0
a(ta(ta(ta(ta(ta(ta(taF111298192.0
abag16
(g17
g18
Ntp571
Rp572
(lp573
g16
(g22
g18
Ntp574
Rp575
(lp576
I8777
ag16
(g26
g18
Ntp577
Rp578
(lp579
I1350918349
aI87076747
abaS'ardrone_base_link'
p580
abaF62.0
aI3
aI4
aI-128
aI168
aI101985
aI439
aF0.06870634108781815
aF142.51585388183594
aF0.0
aF0.008999999612569809
aF-0.1550000011920929
aF5.046000003814697
aI1444
aF-74.21633911132812
aF-3.1784017086029053
aF-0.0
aF0.03502150624990463
aF-0.006603401154279709
aF0.894159197807312
aI0
a(ta(ta(ta(ta(ta(ta(taF111363256.0
abag16
(g17
g18
Ntp581
Rp582
(lp583
g16
(g22
g18
Ntp584
Rp585
(lp586
I8778
ag16
(g26
g18
Ntp587
Rp588
(lp589
I1350918349
aI146098502
abaS'ardrone_base_link'
p590
abaF62.0
aI3
aI12
aI-122
aI168
aI101991
aI439
aF0.06986281275749207
aF141.91241455078125
aF0.0
aF0.029999999329447746
aF-0.20399999618530273
aF4.783999919891357
aI1461
aF-65.2020263671875
aF-30.165264129638672
aF-0.0
aF0.041762515902519226
aF-0.007582085207104683
aF0.8920440077781677
aI0
a(ta(ta(ta(ta(ta(ta(taF111428320.0
abag16
(g17
g18
Ntp591
Rp592
(lp593
g16
(g22
g18
Ntp594
Rp595
(lp596
I8779
ag16
(g26
g18
Ntp597
Rp598
(lp599
I1350918349
aI206044959
abaS'ardrone_base_link'
p600
abaF62.0
aI3
aI5
aI-127
aI165
aI101991
aI439
aF0.07013852894306183
aF141.29551696777344
aF0.0
aF-0.020999999716877937
aF-0.22300000488758087
aF4.559000015258789
aI1475
aF-53.0286979675293
aF-33.30739212036133
aF-0.0
aF0.050311680883169174
aF-0.004110531881451607
aF0.8953397870063782
aI0
a(ta(ta(ta(ta(ta(ta(taF111493264.0
abag16
(g17
g18
Ntp601
Rp602
(lp603
g16
(g22
g18
Ntp604
Rp605
(lp606
I8780
ag16
(g26
g18
Ntp607
Rp608
(lp609
I1350918349
aI269279158
abaS'ardrone_base_link'
p610
abaF62.0
aI3
aI12
aI-126
aI164
aI101998
aI439
aF0.07091681659221649
aF140.65249633789062
aF0.0
aF-0.007000000216066837
aF-0.18299999833106995
aF4.361999988555908
aI1485
aF-34.975276947021484
aF-46.071083068847656
aF-0.0
aF0.038311704993247986
aF-0.006766155362129211
aF0.8761284351348877
aI0
a(ta(ta(ta(ta(ta(ta(taF111558416.0
abag16
(g17
g18
Ntp611
Rp612
(lp613
g16
(g22
g18
Ntp614
Rp615
(lp616
I8781
ag16
(g26
g18
Ntp617
Rp618
(lp619
I1350918349
aI346031899
abaS'ardrone_base_link'
p620
abaF62.0
aI3
aI3
aI-127
aI167
aI101988
aI439
aF0.07256424427032471
aF139.7432861328125
aF0.0
aF-0.029999999329447746
aF-0.19900000095367432
aF4.146999835968018
aI1492
aF-25.047409057617188
aF-65.1008071899414
aF-0.0
aF0.042195048183202744
aF-0.009445924311876297
aF0.8837308287620544
aI0
a(ta(ta(ta(ta(ta(ta(taF111623448.0
abag16
(g17
g18
Ntp621
Rp622
(lp623
g16
(g22
g18
Ntp624
Rp625
(lp626
I8782
ag16
(g26
g18
Ntp627
Rp628
(lp629
I1350918349
aI406133486
abaS'ardrone_base_link'
p630
abaF62.0
aI3
aI3
aI-121
aI169
aI101988
aI439
aF0.07341304421424866
aF138.63223266601562
aF0.0
aF-0.08699999749660492
aF-0.20800000429153442
aF3.9660000801086426
aI1497
aF-8.82360553741455
aF-69.62621307373047
aF-0.0
aF0.04723440110683441
aF-0.005776095204055309
aF0.896879255771637
aI0
a(ta(ta(ta(ta(ta(ta(taF111688544.0
abag16
(g17
g18
Ntp631
Rp632
(lp633
g16
(g22
g18
Ntp634
Rp635
(lp636
I8783
ag16
(g26
g18
Ntp637
Rp638
(lp639
I1350918349
aI466049254
abaS'ardrone_base_link'
p640
abaF62.0
aI3
aI5
aI-125
aI165
aI101991
aI439
aF0.07421252876520157
aF137.90536499023438
aF0.0
aF-0.057999998331069946
aF-0.2290000021457672
aF3.677999973297119
aI1501
aF-6.947459697723389
aF-68.07618713378906
aF-0.0
aF0.04664009064435959
aF-0.00807615090161562
aF0.9167948961257935
aI0
a(ta(ta(ta(ta(ta(ta(taF111753552.0
abag16
(g17
g18
Ntp641
Rp642
(lp643
g16
(g22
g18
Ntp644
Rp645
(lp646
I8784
ag16
(g26
g18
Ntp647
Rp648
(lp649
I1350918349
aI554299906
abaS'ardrone_base_link'
p650
abaF62.0
aI3
aI4
aI-126
aI168
aI101985
aI439
aF0.0756317600607872
aF136.6324462890625
aF0.0
aF-0.03500000014901161
aF-0.19099999964237213
aF3.4159998893737793
aI1503
aF-3.726583480834961
aF-77.66509246826172
aF-0.0
aF0.04336533322930336
aF-0.013397930189967155
aF0.9323734641075134
aI0
a(ta(ta(ta(ta(ta(ta(taF111818672.0
abag16
(g17
g18
Ntp651
Rp652
(lp653
g16
(g22
g18
Ntp654
Rp655
(lp656
I8785
ag16
(g26
g18
Ntp657
Rp658
(lp659
I1350918349
aI606030617
abaS'ardrone_base_link'
p660
abaF62.0
aI3
aI5
aI-123
aI167
aI101991
aI439
aF0.07634525746107101
aF135.74713134765625
aF0.0
aF0.01899999938905239
aF-0.27000001072883606
aF3.252000093460083
aI1502
aF7.584918022155762
aF-76.04212188720703
aF-0.0
aF0.04931274801492691
aF-0.014902629889547825
aF0.932062029838562
aI0
a(ta(ta(ta(ta(ta(ta(taF111883768.0
abag16
(g17
g18
Ntp661
Rp662
(lp663
g16
(g22
g18
Ntp664
Rp665
(lp666
I8786
ag16
(g26
g18
Ntp667
Rp668
(lp669
I1350918349
aI671945384
abaS'ardrone_base_link'
p670
abaF62.0
aI3
aI7
aI-125
aI167
aI101988
aI439
aF0.07801160961389542
aF134.38400268554688
aF0.0
aF0.06599999964237213
aF-0.29899999499320984
aF3.0840001106262207
aI1504
aF6.240851402282715
aF-94.64998626708984
aF-0.0
aF0.04937029629945755
aF-0.012747706845402718
aF0.9376123547554016
aI0
a(ta(ta(ta(ta(ta(ta(taF111948768.0
abag16
(g17
g18
Ntp671
Rp672
(lp673
g16
(g22
g18
Ntp674
Rp675
(lp676
I8787
ag16
(g26
g18
Ntp677
Rp678
(lp679
I1350918349
aI726073282
abaS'ardrone_base_link'
p680
abaF62.0
aI3
aI5
aI-123
aI169
aI101994
aI439
aF0.07923722267150879
aF133.12477111816406
aF0.0
aF0.03999999910593033
aF-0.25999999046325684
aF2.921999931335449
aI1501
aF9.177470207214355
aF-112.89307403564453
aF-0.0
aF0.05066251754760742
aF-0.0010679271072149277
aF0.9395074844360352
aI0
a(ta(ta(ta(ta(ta(ta(taF112013800.0
abag16
(g17
g18
Ntp681
Rp682
(lp683
g16
(g22
g18
Ntp684
Rp685
(lp686
I8788
ag16
(g26
g18
Ntp687
Rp688
(lp689
I1350918349
aI806064547
abaS'ardrone_base_link'
p690
abaF62.0
aI3
aI2
aI-126
aI168
aI101991
aI439
aF0.07979471981525421
aF132.6338653564453
aF0.0
aF0.03099999949336052
aF-0.2290000021457672
aF2.7639999389648438
aI1498
aF7.61939811706543
aF-107.52708435058594
aF-0.0
aF0.04925940930843353
aF-0.0029479030054062605
aF0.9434234499931335
aI0
a(ta(ta(ta(ta(ta(ta(taF112078864.0
abag16
(g17
g18
Ntp691
Rp692
(lp693
g16
(g22
g18
Ntp694
Rp695
(lp696
I8789
ag16
(g26
g18
Ntp697
Rp698
(lp699
I1350918349
aI866049365
abaS'ardrone_base_link'
p700
abaF62.0
aI3
aI12
aI-124
aI166
aI101991
aI439
aF0.08058973401784897
aF131.99002075195312
aF0.0
aF0.09300000220537186
aF-0.21799999475479126
aF2.6070001125335693
aI1491
aF3.1582958698272705
aF-117.33345794677734
aF-0.0
aF0.05451478064060211
aF-0.0008086112211458385
aF0.9570850133895874
aI0
a(ta(ta(ta(ta(ta(ta(taF112143960.0
abag16
(g17
g18
Ntp701
Rp702
(lp703
g16
(g22
g18
Ntp704
Rp705
(lp706
I8790
ag16
(g26
g18
Ntp707
Rp708
(lp709
I1350918349
aI926039424
abaS'ardrone_base_link'
p710
abaF62.0
aI3
aI10
aI-126
aI170
aI101998
aI439
aF0.08102104067802429
aF131.1890106201172
aF0.0
aF0.17599999904632568
aF-0.18199999630451202
aF2.4690001010894775
aI1487
aF4.8413591384887695
aF-115.85604858398438
aF-0.0
aF0.05341191962361336
aF-0.003063261741772294
aF0.9635555744171143
aI0
a(ta(ta(ta(ta(ta(ta(taF113306144.0
abag16
(g17
g18
Ntp711
Rp712
(lp713
g16
(g22
g18
Ntp714
Rp715
(lp716
I8791
ag16
(g26
g18
Ntp717
Rp718
(lp719
I1350918349
aI991439414
abaS'ardrone_base_link'
p720
abaF62.0
aI3
aI7
aI-127
aI165
aI101994
aI439
aF0.08185842633247375
aF130.43215942382812
aF0.0
aF0.15800000727176666
aF-0.19499999284744263
aF2.3350000381469727
aI1489
aF13.51582145690918
aF-128.09716796875
aF-0.0
aF0.05543127655982971
aF0.0002633433323353529
aF0.9601922035217285
aI0
a(ta(ta(ta(ta(ta(ta(taF113371176.0
abag16
(g17
g18
Ntp721
Rp722
(lp723
g16
(g22
g18
Ntp724
Rp725
(lp726
I8792
ag16
(g26
g18
Ntp727
Rp728
(lp729
I1350918350
aI52593144
abaS'ardrone_base_link'
p730
abaF62.0
aI3
aI10
aI-126
aI166
aI101994
aI439
aF0.0821489542722702
aF129.65573120117188
aF0.0
aF0.09799999743700027
aF-0.17499999701976776
aF2.2039999961853027
aI1485
aF15.554471969604492
aF-127.89627075195312
aF-0.0
aF0.05679873004555702
aF-0.003540809266269207
aF0.9579168558120728
aI0
a(ta(ta(ta(ta(ta(ta(taF113436336.0
abag16
(g17
g18
Ntp731
Rp732
(lp733
g16
(g22
g18
Ntp734
Rp735
(lp736
I8793
ag16
(g26
g18
Ntp737
Rp738
(lp739
I1350918350
aI130748496
abaS'ardrone_base_link'
p740
abaF62.0
aI3
aI10
aI-130
aI166
aI101985
aI439
aF0.08291138708591461
aF128.76991271972656
aF0.0
aF0.03200000151991844
aF-0.11800000071525574
aF2.062999963760376
aI1480
aF18.300058364868164
aF-129.0560760498047
aF-0.0
aF0.04939815774559975
aF-0.0046890717931091785
aF0.9563939571380615
aI0
a(ta(ta(ta(ta(ta(ta(taF113501304.0
abag16
(g17
g18
Ntp741
Rp742
(lp743
g16
(g22
g18
Ntp744
Rp745
(lp746
I8794
ag16
(g26
g18
Ntp747
Rp748
(lp749
I1350918350
aI186031117
abaS'ardrone_base_link'
p750
abaF62.0
aI3
aI13
aI-125
aI169
aI102001
aI439
aF0.08364804834127426
aF128.53997802734375
aF0.0
aF-0.09399999678134918
aF-0.11299999803304672
aF1.909000039100647
aI1480
aF20.82028579711914
aF-118.9013900756836
aF-0.0
aF0.04092678800225258
aF-0.0016451103147119284
aF0.9532720446586609
aI0
a(ta(ta(ta(ta(ta(ta(taF113566552.0
abag16
(g17
g18
Ntp751
Rp752
(lp753
g16
(g22
g18
Ntp754
Rp755
(lp756
I8795
ag16
(g26
g18
Ntp757
Rp758
(lp759
I1350918350
aI250705556
abaS'ardrone_base_link'
p760
abaF62.0
aI3
aI10
aI-122
aI160
aI101998
aI439
aF0.08495638519525528
aF128.07606506347656
aF0.0
aF-0.10000000149011612
aF-0.07900000363588333
aF1.7549999952316284
aI1476
aF29.427101135253906
aF-121.1506576538086
aF-0.0
aF0.048828430473804474
aF-0.0026745854411274195
aF0.9673225283622742
aI0
a(ta(ta(ta(ta(ta(ta(taF113631464.0
abag16
(g17
g18
Ntp761
Rp762
(lp763
g16
(g22
g18
Ntp764
Rp765
(lp766
I8796
ag16
(g26
g18
Ntp767
Rp768
(lp769
I1350918350
aI328730169
abaS'ardrone_base_link'
p770
abaF62.0
aI3
aI10
aI-124
aI166
aI101991
aI439
aF0.0856722816824913
aF127.75111389160156
aF0.0
aF-0.08299999684095383
aF-0.09099999815225601
aF1.63100004196167
aI1473
aF22.428495407104492
aF-111.8273696899414
aF-0.0
aF0.05015898868441582
aF-0.00026260368758812547
aF0.9634241461753845
aI0
a(ta(ta(ta(ta(ta(ta(taF113696552.0
abag16
(g17
g18
Ntp771
Rp772
(lp773
g16
(g22
g18
Ntp774
Rp775
(lp776
I8797
ag16
(g26
g18
Ntp777
Rp778
(lp779
I1350918350
aI392438421
abaS'ardrone_base_link'
p780
abaF62.0
aI3
aI13
aI-127
aI165
aI101994
aI439
aF0.08630451560020447
aF126.88375854492188
aF0.0
aF-0.02800000086426735
aF-0.050999999046325684
aF1.5119999647140503
aI1475
aF20.76381492614746
aF-118.24397277832031
aF-0.0
aF0.04994221404194832
aF-0.00907207652926445
aF0.9572148323059082
aI0
a(ta(ta(ta(ta(ta(ta(taF113761616.0
abag16
(g17
g18
Ntp781
Rp782
(lp783
g16
(g22
g18
Ntp784
Rp785
(lp786
I8798
ag16
(g26
g18
Ntp787
Rp788
(lp789
I1350918350
aI452841495
abaS'ardrone_base_link'
p790
abaF62.0
aI3
aI8
aI-122
aI162
aI101998
aI439
aF0.08705820888280869
aF125.91213989257812
aF0.0
aF-0.08699999749660492
aF-0.041999999433755875
aF1.4110000133514404
aI1473
aF27.351255416870117
aF-119.30715942382812
aF-0.0
aF0.0500667504966259
aF-0.00729178823530674
aF0.9370527863502502
aI0
a(ta(ta(ta(ta(ta(ta(taF113826680.0
abag16
(g17
g18
Ntp791
Rp792
(lp793
g16
(g22
g18
Ntp794
Rp795
(lp796
I8799
ag16
(g26
g18
Ntp797
Rp798
(lp799
I1350918350
aI506125203
abaS'ardrone_base_link'
p800
abaF62.0
aI3
aI13
aI-131
aI163
aI101985
aI439
aF0.08708666265010834
aF124.9721908569336
aF0.0
aF-0.12700000405311584
aF-0.08699999749660492
aF1.2760000228881836
aI1470
aF33.46565246582031
aF-110.31470489501953
aF-0.0
aF0.05486160144209862
aF-0.009171716868877411
aF0.9110009670257568
aI0
a(ta(ta(ta(ta(ta(ta(taF113891688.0
abag16
(g17
g18
Ntp801
Rp802
(lp803
g16
(g22
g18
Ntp804
Rp805
(lp806
I8800
ag16
(g26
g18
Ntp807
Rp808
(lp809
I1350918350
aI577640045
abaS'ardrone_base_link'
p810
abaF62.0
aI3
aI7
aI-123
aI163
aI101991
aI439
aF0.08746550977230072
aF123.97881317138672
aF0.0
aF-0.1720000058412552
aF-0.12700000405311584
aF1.1729999780654907
aI1465
aF35.68927764892578
aF-101.42090606689453
aF-0.0
aF0.05724475532770157
aF0.0010969891445711255
aF0.9112321734428406
aI0
a(ta(ta(ta(ta(ta(ta(taF113956840.0
abag16
(g17
g18
Ntp811
Rp812
(lp813
g16
(g22
g18
Ntp814
Rp815
(lp816
I8801
ag16
(g26
g18
Ntp817
Rp818
(lp819
I1350918350
aI646052390
abaS'ardrone_base_link'
p820
abaF62.0
aI3
aI14
aI-126
aI166
aI101988
aI439
aF0.08725257217884064
aF123.26280212402344
aF0.0
aF-0.10000000149011612
aF-0.1899999976158142
aF1.069000005722046
aI1464
aF38.82231903076172
aF-90.64999389648438
aF-0.0
aF0.053052421659231186
aF-0.00513429706916213
aF0.9361110925674438
aI0
a(ta(ta(ta(ta(ta(ta(taF114021808.0
abag16
(g17
g18
Ntp821
Rp822
(lp823
g16
(g22
g18
Ntp824
Rp825
(lp826
I8802
ag16
(g26
g18
Ntp827
Rp828
(lp829
I1350918350
aI706049361
abaS'ardrone_base_link'
p830
abaF62.0
aI3
aI9
aI-125
aI165
aI102001
aI439
aF0.08720570802688599
aF122.6525650024414
aF0.0
aF-0.052000001072883606
aF-0.24799999594688416
aF0.9869999885559082
aI1463
aF40.79141616821289
aF-84.47875213623047
aF-0.0
aF0.052242036908864975
aF-0.002439686795696616
aF0.9532107710838318
aI0
a(ta(ta(ta(ta(ta(ta(taF114086904.0
abag16
(g17
g18
Ntp831
Rp832
(lp833
g16
(g22
g18
Ntp834
Rp835
(lp836
I8803
ag16
(g26
g18
Ntp837
Rp838
(lp839
I1350918350
aI767596469
abaS'ardrone_base_link'
p840
abaF62.0
aI3
aI5
aI-129
aI165
aI101994
aI439
aF0.087220199406147
aF122.18177032470703
aF0.0
aF-0.03099999949336052
aF-0.2370000034570694
aF0.9240000247955322
aI1462
aF36.5467643737793
aF-90.58074951171875
aF-0.0
aF0.046346813440322876
aF0.0003096369910053909
aF0.9603524804115295
aI0
a(ta(ta(ta(ta(ta(ta(taF114151936.0
abag16
(g17
g18
Ntp841
Rp842
(lp843
g16
(g22
g18
Ntp844
Rp845
(lp846
I8804
ag16
(g26
g18
Ntp847
Rp848
(lp849
I1350918350
aI832427699
abaS'ardrone_base_link'
p850
abaF62.0
aI3
aI14
aI-126
aI168
aI102001
aI439
aF0.08683425188064575
aF121.83007049560547
aF0.0
aF-0.0020000000949949026
aF-0.2150000035762787
aF0.8859999775886536
aI1462
aF35.59712600708008
aF-90.71260833740234
aF-0.0
aF0.046634573489427567
aF-0.002765315119177103
aF0.9602319002151489
aI0
a(ta(ta(ta(ta(ta(ta(taF114217032.0
abag16
(g17
g18
Ntp851
Rp852
(lp853
g16
(g22
g18
Ntp854
Rp855
(lp856
I8805
ag16
(g26
g18
Ntp857
Rp858
(lp859
I1350918350
aI906072059
abaS'ardrone_base_link'
p860
abaF62.0
aI3
aI13
aI-123
aI163
aI101994
aI439
aF0.08698677271604538
aF121.1535415649414
aF0.0
aF0.0
aF-0.2370000034570694
aF0.8149999976158142
aI1464
aF39.36024475097656
aF-95.0149154663086
aF-0.0
aF0.049348436295986176
aF-0.005441826768219471
aF0.9545098543167114
aI0
a(ta(ta(ta(ta(ta(ta(taF115379248.0
abag16
(g17
g18
Ntp861
Rp862
(lp863
g16
(g22
g18
Ntp864
Rp865
(lp866
I8806
ag16
(g26
g18
Ntp867
Rp868
(lp869
I1350918350
aI969116291
abaS'ardrone_base_link'
p870
abaF62.0
aI3
aI11
aI-123
aI167
aI101988
aI439
aF0.08763487637042999
aF120.94921112060547
aF0.0
aF0.013000000268220901
aF-0.257999986410141
aF0.6990000009536743
aI1465
aF32.16291046142578
aF-98.44291687011719
aF-0.0
aF0.04874996095895767
aF-0.0073465704917907715
aF0.9456068873405457
aI0
a(ta(ta(ta(ta(ta(ta(taF115444280.0
abag16
(g17
g18
Ntp871
Rp872
(lp873
g16
(g22
g18
Ntp874
Rp875
(lp876
I8807
ag16
(g26
g18
Ntp877
Rp878
(lp879
I1350918351
aI28897372
abaS'ardrone_base_link'
p880
abaF62.0
aI3
aI10
aI-128
aI166
aI102001
aI439
aF0.08806263655424118
aF120.6857681274414
aF0.0
aF0.04899999871850014
aF-0.21400000154972076
aF0.6060000061988831
aI1467
aF23.540199279785156
aF-100.41368103027344
aF-0.0
aF0.05069857835769653
aF-0.002505489392206073
aF0.9503099918365479
aI0
a(ta(ta(ta(ta(ta(ta(taF115509312.0
abag16
(g17
g18
Ntp881
Rp882
(lp883
g16
(g22
g18
Ntp884
Rp885
(lp886
I8808
ag16
(g26
g18
Ntp887
Rp888
(lp889
I1350918351
aI107297393
abaS'ardrone_base_link'
p890
abaF62.0
aI3
aI13
aI-129
aI165
aI101985
aI439
aF0.08789393305778503
aF120.08876037597656
aF0.0
aF0.03099999949336052
aF-0.17000000178813934
aF0.5270000100135803
aI1469
aF29.992223739624023
aF-94.78711700439453
aF-0.0
aF0.053567562252283096
aF-0.0037751984782516956
aF0.9460793733596802
aI0
a(ta(ta(ta(ta(ta(ta(taF115574496.0
abag16
(g17
g18
Ntp891
Rp892
(lp893
g16
(g22
g18
Ntp894
Rp895
(lp896
I8809
ag16
(g26
g18
Ntp897
Rp898
(lp899
I1350918351
aI166104728
abaS'ardrone_base_link'
p900
abaF62.0
aI3
aI12
aI-120
aI166
aI101994
aI439
aF0.08748709410429001
aF119.83378601074219
aF0.0
aF0.03200000151991844
aF-0.0860000029206276
aF0.4390000104904175
aI1472
aF28.029335021972656
aF-78.0141830444336
aF-0.0
aF0.055190298706293106
aF-0.010019466280937195
aF0.9531901478767395
aI0
a(ta(ta(ta(ta(ta(ta(taF115639472.0
abag16
(g17
g18
Ntp901
Rp902
(lp903
g16
(g22
g18
Ntp904
Rp905
(lp906
I8810
ag16
(g26
g18
Ntp907
Rp908
(lp909
I1350918351
aI243173283
abaS'ardrone_base_link'
p910
abaF62.0
aI3
aI9
aI-127
aI169
aI101991
aI439
aF0.0863303542137146
aF119.35154724121094
aF0.0
aF0.039000000804662704
aF-0.0689999982714653
aF0.3659999966621399
aI1474
aF29.32917022705078
aF-65.82618713378906
aF-0.0
aF0.05734510347247124
aF-0.008431786671280861
aF0.9524599313735962
aI0
a(ta(ta(ta(ta(ta(ta(taF115704536.0
abag16
(g17
g18
Ntp911
Rp912
(lp913
g16
(g22
g18
Ntp914
Rp915
(lp916
I8811
ag16
(g26
g18
Ntp917
Rp918
(lp919
I1350918351
aI286029816
abaS'ardrone_base_link'
p920
abaF62.0
aI3
aI7
aI-123
aI171
aI101982
aI439
aF0.08609023690223694
aF118.4670639038086
aF0.0
aF0.07699999958276749
aF-0.06599999964237213
aF0.2879999876022339
aI1474
aF37.623512268066406
aF-83.52098083496094
aF-0.0
aF0.05671854317188263
aF-0.0048647429794073105
aF0.9504611492156982
aI0
a(ta(ta(ta(ta(ta(ta(taF115769568.0
abag16
(g17
g18
Ntp921
Rp922
(lp923
g16
(g22
g18
Ntp924
Rp925
(lp926
I8812
ag16
(g26
g18
Ntp927
Rp928
(lp929
I1350918351
aI366057030
abaS'ardrone_base_link'
p930
abaF62.0
aI3
aI8
aI-130
aI168
aI101998
aI439
aF0.08678025752305984
aF117.53414154052734
aF0.0
aF0.054999999701976776
aF-0.0729999989271164
aF0.23499999940395355
aI1473
aF46.03743362426758
aF-106.42784881591797
aF-0.0
aF0.05039983242750168
aF-0.001148768002167344
aF0.9576805233955383
aI0
a(ta(ta(ta(ta(ta(ta(taF115834568.0
abag16
(g17
g18
Ntp931
Rp932
(lp933
g16
(g22
g18
Ntp934
Rp935
(lp936
I8813
ag16
(g26
g18
Ntp937
Rp938
(lp939
I1350918351
aI437215733
abaS'ardrone_base_link'
p940
abaF62.0
aI3
aI9
aI-129
aI161
aI101988
aI439
aF0.08672666549682617
aF116.92042541503906
aF0.0
aF-0.09000000357627869
aF-0.10300000011920929
aF0.19200000166893005
aI1477
aF48.50168991088867
aF-107.7077407836914
aF-0.0
aF0.048884060233831406
aF-0.005857476964592934
aF0.9529541730880737
aI0
a(ta(ta(ta(ta(ta(ta(taF115899632.0
abag16
(g17
g18
Ntp941
Rp942
(lp943
g16
(g22
g18
Ntp944
Rp945
(lp946
I8814
ag16
(g26
g18
Ntp947
Rp948
(lp949
I1350918351
aI486663431
abaS'ardrone_base_link'
p950
abaF62.0
aI3
aI12
aI-124
aI172
aI101998
aI439
aF0.08700339496135712
aF116.16593170166016
aF0.0
aF-0.1899999976158142
aF-0.1340000033378601
aF0.14000000059604645
aI1476
aF49.673641204833984
aF-105.92231750488281
aF-0.0
aF0.053148623555898666
aF-0.009856678545475006
aF0.9482648968696594
aI0
a(ta(ta(ta(ta(ta(ta(taF115964664.0
abag16
(g17
g18
Ntp951
Rp952
(lp953
g16
(g22
g18
Ntp954
Rp955
(lp956
I8815
ag16
(g26
g18
Ntp957
Rp958
(lp959
I1350918351
aI549632086
abaS'ardrone_base_link'
p960
abaF62.0
aI3
aI8
aI-124
aI158
aI101988
aI439
aF0.0877549946308136
aF114.99529266357422
aF0.0
aF-0.15600000321865082
aF-0.13600000739097595
aF0.08299999684095383
aI1475
aF55.59150314331055
aF-116.13560485839844
aF-0.0
aF0.05005239322781563
aF-0.0035128898452967405
aF0.9598737955093384
aI0
a(ta(ta(ta(ta(ta(ta(taF116029672.0
abag16
(g17
g18
Ntp961
Rp962
(lp963
g16
(g22
g18
Ntp964
Rp965
(lp966
I8816
ag16
(g26
g18
Ntp967
Rp968
(lp969
I1350918351
aI630708805
abaS'ardrone_base_link'
p970
abaF62.0
aI3
aI15
aI-129
aI165
aI101991
aI439
aF0.08687806129455566
aF115.10346984863281
aF0.0
aF0.968999981880188
aF-0.14399999380111694
aF0.013000000268220901
aI1477
aF48.96961975097656
aF-101.33901977539062
aF-0.0
aF0.046779029071331024
aF-0.004499210510402918
aF0.9580733180046082
aI0
a(ta(ta(ta(ta(ta(ta(taF116094944.0
abag16
(g17
g18
Ntp971
Rp972
(lp973
g16
(g22
g18
Ntp974
Rp975
(lp976
I8817
ag16
(g26
g18
Ntp977
Rp978
(lp979
I1350918351
aI686088058
abaS'ardrone_base_link'
p980
abaF62.0
aI3
aI9
aI-127
aI171
aI101998
aI439
aF0.08669381588697433
aF117.11534118652344
aF0.0
aF3.3459999561309814
aF-0.1809999942779541
aF-0.061000000685453415
aI1481
aF10.676857948303223
aF-83.02657318115234
aF-0.0
aF0.0390649177134037
aF-0.003589164698496461
aF0.9739392995834351
aI0
a(ta(ta(ta(ta(ta(ta(taF116160072.0
abag16
(g17
g18
Ntp981
Rp982
(lp983
g16
(g22
g18
Ntp984
Rp985
(lp986
I8818
ag16
(g26
g18
Ntp987
Rp988
(lp989
I1350918351
aI746058891
abaS'ardrone_base_link'
p990
abaF62.0
aI3
aI-3
aI-127
aI165
aI101985
aI439
aF0.08719868957996368
aF118.38751983642578
aF0.0
aF5.959000110626221
aF-0.12399999797344208
aF-0.12999999523162842
aI1481
aF-1.029994010925293
aF-127.76624298095703
aF-0.0
aF0.03404675051569939
aF-0.002116444054991007
aF0.9690541625022888
aI0
a(ta(ta(ta(ta(ta(ta(taF116224952.0
abag16
(g17
g18
Ntp991
Rp992
(lp993
g16
(g22
g18
Ntp994
Rp995
(lp996
I8819
ag16
(g26
g18
Ntp997
Rp998
(lp999
I1350918351
aI810372144
abaS'ardrone_base_link'
p1000
abaF62.0
aI3
aI-10
aI-126
aI172
aI102001
aI439
aF0.08945523947477341
aF119.73673248291016
aF0.0
aF8.156000137329102
aF-0.11100000143051147
aF-0.20800000429153442
aI1481
aF-0.10989896953105927
aF-214.46670532226562
aF-0.0
aF0.020058050751686096
aF-0.0018656845204532146
aF0.9805708527565002
aI0
a(ta(ta(ta(ta(ta(ta(taF116289920.0
abag16
(g17
g18
Ntp1001
Rp1002
(lp1003
g16
(g22
g18
Ntp1004
Rp1005
(lp1006
I8820
ag16
(g26
g18
Ntp1007
Rp1008
(lp1009
I1350918351
aI890128016
abaS'ardrone_base_link'
p1010
abaF62.0
aI3
aI-16
aI-132
aI168
aI102001
aI439
aF0.0905107855796814
aF120.56379699707031
aF0.0
aF9.744000434875488
aF-0.18700000643730164
aF-0.2919999957084656
aI1485
aF-3.9410126209259033
aF-286.5697326660156
aF-0.0
aF0.05631214752793312
aF0.005477448459714651
aF0.9832723736763
aI0
a(ta(ta(ta(ta(ta(ta(taF117452168.0
abag16
(g17
g18
Ntp1011
Rp1012
(lp1013
g16
(g22
g18
Ntp1014
Rp1015
(lp1016
I8821
ag16
(g26
g18
Ntp1017
Rp1018
(lp1019
I1350918351
aI946086560
abaS'ardrone_base_link'
p1020
abaF62.0
aI3
aI-10
aI-132
aI166
aI101994
aI439
aF0.09083151817321777
aF120.62886047363281
aF0.0
aF10.574000358581543
aF-0.1469999998807907
aF-0.2840000092983246
aI1491
aF0.921278715133667
aF-367.467041015625
aF-0.0
aF0.05197237804532051
aF0.015842754393815994
aF0.9405256509780884
aI0
a(ta(ta(ta(ta(ta(ta(taF117517264.0
abag16
(g17
g18
Ntp1021
Rp1022
(lp1023
g16
(g22
g18
Ntp1024
Rp1025
(lp1026
I8822
ag16
(g26
g18
Ntp1027
Rp1028
(lp1029
I1350918352
aI12205729
abaS'ardrone_base_link'
p1030
abaF62.0
aI3
aI-10
aI-124
aI172
aI101994
aI439
aF0.08981534838676453
aF120.63716888427734
aF0.0
aF10.930999755859375
aF-0.03200000151991844
aF-0.3580000102519989
aI1504
aF15.490574836730957
aF-431.6298828125
aF-0.0
aF0.056035593152046204
aF0.02323056198656559
aF0.9332374930381775
aI0
a(ta(ta(ta(ta(ta(ta(taF117582264.0
abag16
(g17
g18
Ntp1031
Rp1032
(lp1033
g16
(g22
g18
Ntp1034
Rp1035
(lp1036
I8823
ag16
(g26
g18
Ntp1037
Rp1038
(lp1039
I1350918352
aI66050319
abaS'ardrone_base_link'
p1040
abaF62.0
aI3
aI-16
aI-122
aI172
aI101998
aI439
aF0.08827710151672363
aF119.76171112060547
aF0.0
aF11.052000045776367
aF0.03700000047683716
aF-0.41600000858306885
aI1504
aF36.75611114501953
aF-505.6162109375
aF-0.0
aF0.04951364919543266
aF0.02967872843146324
aF0.9290923476219177
aI0
a(ta(ta(ta(ta(ta(ta(taF117647296.0
abag16
(g17
g18
Ntp1041
Rp1042
(lp1043
g16
(g22
g18
Ntp1044
Rp1045
(lp1046
I8824
ag16
(g26
g18
Ntp1047
Rp1048
(lp1049
I1350918352
aI146040251
abaS'ardrone_base_link'
p1050
abaF62.0
aI3
aI-15
aI-129
aI165
aI101985
aI439
aF0.08838506788015366
aF118.62568664550781
aF0.0
aF11.03499984741211
aF0.06700000166893005
aF-0.46399998664855957
aI1495
aF49.322601318359375
aF-609.376708984375
aF-0.0
aF0.04793446138501167
aF0.04537245258688927
aF0.9708582162857056
aI0
a(ta(ta(ta(ta(ta(ta(taF117712456.0
abag16
(g17
g18
Ntp1051
Rp1052
(lp1053
g16
(g22
g18
Ntp1054
Rp1055
(lp1056
I8825
ag16
(g26
g18
Ntp1057
Rp1058
(lp1059
I1350918352
aI222596462
abaS'ardrone_base_link'
p1060
abaF62.0
aI3
aI-13
aI-131
aI163
aI101994
aI439
aF0.08821206539869308
aF118.34678649902344
aF0.0
aF10.895000457763672
aF0.039000000804662704
aF-0.5370000004768372
aI1490
aF47.19804763793945
aF-689.4348754882812
aF-0.0
aF0.055152811110019684
aF0.05601387098431587
aF0.9845675826072693
aI0
a(ta(ta(ta(ta(ta(ta(taF117777368.0
abag16
(g17
g18
Ntp1061
Rp1062
(lp1063
g16
(g22
g18
Ntp1064
Rp1065
(lp1066
I8826
ag16
(g26
g18
Ntp1067
Rp1068
(lp1069
I1350918352
aI266096860
abaS'ardrone_base_link'
p1070
abaF62.0
aI3
aI-13
aI-127
aI173
aI102004
aI439
aF0.09391366690397263
aF114.8466796875
aF0.0
aF10.769000053405762
aF-0.004000000189989805
aF-0.5960000157356262
aI1482
aF90.19618225097656
aF-933.630126953125
aF-0.0
aF0.060126494616270065
aF0.05073631927371025
aF0.990097165107727
aI0
a(ta(ta(ta(ta(ta(ta(taF117842520.0
abag16
(g17
g18
Ntp1071
Rp1072
(lp1073
g16
(g22
g18
Ntp1074
Rp1075
(lp1076
I8827
ag16
(g26
g18
Ntp1077
Rp1078
(lp1079
I1350918352
aI324158346
abaS'ardrone_base_link'
p1080
abaF62.0
aI3
aI-16
aI-132
aI170
aI101982
aI439
aF0.09985021501779556
aF111.53102111816406
aF0.0
aF10.689000129699707
aF-0.09799999743700027
aF-0.6449999809265137
aI1481
aF119.0666275024414
aF-1110.86962890625
aF-0.0
aF0.054874639958143234
aF0.0639713853597641
aF0.952635645866394
aI0
a(ta(ta(ta(ta(ta(ta(taF117907488.0
abag16
(g17
g18
Ntp1081
Rp1082
(lp1083
g16
(g22
g18
Ntp1084
Rp1085
(lp1086
I8828
ag16
(g26
g18
Ntp1087
Rp1088
(lp1089
I1350918352
aI408733474
abaS'ardrone_base_link'
p1090
abaF62.0
aI3
aI-9
aI-129
aI167
aI101979
aI439
aF0.10430790483951569
aF109.16006469726562
aF0.0
aF10.512999534606934
aF-0.25
aF-0.6990000009536743
aI1487
aF140.83587646484375
aF-1212.7247314453125
aF-0.0
aF0.048373233526945114
aF0.0665646642446518
aF0.857105553150177
aI0
a(ta(ta(ta(ta(ta(ta(taF117972584.0
abag16
(g17
g18
Ntp1091
Rp1092
(lp1093
g16
(g22
g18
Ntp1094
Rp1095
(lp1096
I8829
ag16
(g26
g18
Ntp1097
Rp1098
(lp1099
I1350918352
aI466103281
abaS'ardrone_base_link'
p1100
abaF62.0
aI3
aI-13
aI-127
aI171
aI102007
aI439
aF0.10931988805532455
aF107.06280517578125
aF0.0
aF10.345999717712402
aF-0.3160000145435333
aF-0.7269999980926514
aI1485
aF159.8997344970703
aF-1304.600341796875
aF-0.0
aF0.04973717778921127
aF0.07037269324064255
aF0.8997481465339661
aI0
a(ta(ta(ta(ta(ta(ta(taF118037680.0
abag16
(g17
g18
Ntp1101
Rp1102
(lp1103
g16
(g22
g18
Ntp1104
Rp1105
(lp1106
I8830
ag16
(g26
g18
Ntp1107
Rp1108
(lp1109
I1350918352
aI526070505
abaS'ardrone_base_link'
p1110
abaF62.0
aI3
aI-12
aI-126
aI170
aI101994
aI439
aF0.11246093362569809
aF106.37504577636719
aF0.0
aF10.213000297546387
aF-0.46399998664855957
aF-0.7599999904632568
aI1485
aF145.55140686035156
aF-1339.5291748046875
aF-0.0
aF0.04668893665075302
aF0.08513641357421875
aF0.983821451663971
aI0
a(ta(ta(ta(ta(ta(ta(taF118102712.0
abag16
(g17
g18
Ntp1111
Rp1112
(lp1113
g16
(g22
g18
Ntp1114
Rp1115
(lp1116
I8831
ag16
(g26
g18
Ntp1117
Rp1118
(lp1119
I1350918352
aI591860394
abaS'ardrone_base_link'
p1120
abaF62.0
aI3
aI-12
aI-128
aI172
aI101988
aI439
aF0.1166931539773941
aF105.69206237792969
aF0.0
aF10.215999603271484
aF-0.6290000081062317
aF-0.7889999747276306
aI1486
aF136.78172302246094
aF-1402.203369140625
aF-0.0
aF0.04139889404177666
aF0.07824406772851944
aF0.9582784175872803
aI0
a(ta(ta(ta(ta(ta(ta(taF118167840.0
abag16
(g17
g18
Ntp1121
Rp1122
(lp1123
g16
(g22
g18
Ntp1124
Rp1125
(lp1126
I8832
ag16
(g26
g18
Ntp1127
Rp1128
(lp1129
I1350918352
aI666052010
abaS'ardrone_base_link'
p1130
abaF62.0
aI3
aI-16
aI-126
aI160
aI101998
aI439
aF0.12029539048671722
aF104.81123352050781
aF0.0
aF10.147000312805176
aF-0.5870000123977661
aF-0.7749999761581421
aI1486
aF126.16752624511719
aF-1437.6817626953125
aF-0.0
aF0.036433156579732895
aF0.08504431694746017
aF0.9678764939308167
aI0
a(ta(ta(ta(ta(ta(ta(taF118232928.0
abag16
(g17
g18
Ntp1131
Rp1132
(lp1133
g16
(g22
g18
Ntp1134
Rp1135
(lp1136
I8833
ag16
(g26
g18
Ntp1137
Rp1138
(lp1139
I1350918352
aI732137346
abaS'ardrone_base_link'
p1140
abaF62.0
aI3
aI-9
aI-125
aI167
aI101998
aI439
aF0.12498346716165543
aF105.4612808227539
aF0.0
aF10.123000144958496
aF-0.4690000116825104
aF-0.7440000176429749
aI1482
aF105.63687133789062
aF-1487.13232421875
aF-0.0
aF0.041012462228536606
aF0.09484218060970306
aF0.9514214992523193
aI0
a(ta(ta(ta(ta(ta(ta(taF118297872.0
abag16
(g17
g18
Ntp1141
Rp1142
(lp1143
g16
(g22
g18
Ntp1144
Rp1145
(lp1146
I8834
ag16
(g26
g18
Ntp1147
Rp1148
(lp1149
I1350918352
aI789898339
abaS'ardrone_base_link'
p1150
abaF62.0
aI3
aI-16
aI-126
aI168
aI101979
aI439
aF0.12606172263622284
aF104.7957534790039
aF0.0
aF9.996000289916992
aF-0.3409999907016754
aF-0.703000009059906
aI1487
aF106.68949890136719
aF-1497.343017578125
aF-0.0
aF0.0508330874145031
aF0.10126521438360214
aF0.9673073291778564
aI0
a(ta(ta(ta(ta(ta(ta(taF118362936.0
abag16
(g17
g18
Ntp1151
Rp1152
(lp1153
g16
(g22
g18
Ntp1154
Rp1155
(lp1156
I8835
ag16
(g26
g18
Ntp1157
Rp1158
(lp1159
I1350918352
aI866094442
abaS'ardrone_base_link'
p1160
abaF62.0
aI3
aI-6
aI-126
aI170
aI101985
aI439
aF0.12699751555919647
aF104.1787338256836
aF0.0
aF9.961000442504883
aF-0.15000000596046448
aF-0.656000018119812
aI1483
aF109.15343475341797
aF-1490.713134765625
aF-0.0
aF0.04292218014597893
aF0.10007739067077637
aF0.9550992250442505
aI0
a(ta(ta(ta(ta(ta(ta(taF118428152.0
abag16
(g17
g18
Ntp1161
Rp1162
(lp1163
g16
(g22
g18
Ntp1164
Rp1165
(lp1166
I8836
ag16
(g26
g18
Ntp1167
Rp1168
(lp1169
I1350918352
aI926048652
abaS'ardrone_base_link'
p1170
abaF62.0
aI3
aI-13
aI-129
aI169
aI101998
aI439
aF0.12851203978061676
aF103.37774658203125
aF0.0
aF9.880999565124512
aF-0.10499999672174454
aF-0.6159999966621399
aI1481
aF114.86771392822266
aF-1504.2998046875
aF-0.0
aF0.04835402965545654
aF0.10546771436929703
aF0.9331663250923157
aI0
a(ta(ta(ta(ta(ta(ta(taF119590248.0
abag16
(g17
g18
Ntp1171
Rp1172
(lp1173
g16
(g22
g18
Ntp1174
Rp1175
(lp1176
I8837
ag16
(g26
g18
Ntp1177
Rp1178
(lp1179
I1350918352
aI986099693
abaS'ardrone_base_link'
p1180
abaF62.0
aI3
aI-12
aI-126
aI172
aI101994
aI439
aF0.12907153367996216
aF102.91580200195312
aF0.0
aF9.95300006866455
aF0.01600000075995922
aF-0.6010000109672546
aI1486
aF110.6102066040039
aF-1523.3505859375
aF-0.0
aF0.05099668726325035
aF0.10536819696426392
aF0.9137653112411499
aI0
a(ta(ta(ta(ta(ta(ta(taF119655336.0
abag16
(g17
g18
Ntp1181
Rp1182
(lp1183
g16
(g22
g18
Ntp1184
Rp1185
(lp1186
I8838
ag16
(g26
g18
Ntp1187
Rp1188
(lp1189
I1350918353
aI46056291
abaS'ardrone_base_link'
p1190
abaF62.0
aI3
aI-15
aI-125
aI167
aI101975
aI439
aF0.1287316083908081
aF102.79463958740234
aF0.0
aF9.942000389099121
aF0.041999999433755875
aF-0.5789999961853027
aI1490
aF114.79816436767578
aF-1524.4246826171875
aF-0.0
aF0.0449385903775692
aF0.11019237339496613
aF0.8600917458534241
aI0
a(ta(ta(ta(ta(ta(ta(taF119720400.0
abag16
(g17
g18
Ntp1191
Rp1192
(lp1193
g16
(g22
g18
Ntp1194
Rp1195
(lp1196
I8839
ag16
(g26
g18
Ntp1197
Rp1198
(lp1199
I1350918353
aI108753992
abaS'ardrone_base_link'
p1200
abaF62.0
aI3
aI-10
aI-124
aI164
aI101994
aI439
aF0.12816914916038513
aF102.43586730957031
aF0.0
aF9.282999992370605
aF-0.10199999809265137
aF-0.5770000219345093
aI1486
aF114.5457534790039
aF-1499.706787109375
aF-0.0
aF0.048812661319971085
aF0.09208253771066666
aF0.9461672306060791
aI0
a(ta(ta(ta(ta(ta(ta(taF119785408.0
abag16
(g17
g18
Ntp1201
Rp1202
(lp1203
g16
(g22
g18
Ntp1204
Rp1205
(lp1206
I8840
ag16
(g26
g18
Ntp1207
Rp1208
(lp1209
I1350918353
aI188951692
abaS'ardrone_base_link'
p1210
abaF62.0
aI3
aI-1
aI-127
aI165
aI102019
aI439
aF0.13024073839187622
aF100.85472106933594
aF0.0
aF5.88100004196167
aF-0.22300000488758087
aF-0.47699999809265137
aI1483
aF166.6003875732422
aF-1527.9072265625
aF-0.0
aF0.04257534071803093
aF0.11523571610450745
aF0.954242467880249
aI0
a(ta(ta(ta(ta(ta(ta(taF119850560.0
abag16
(g17
g18
Ntp1211
Rp1212
(lp1213
g16
(g22
g18
Ntp1214
Rp1215
(lp1216
I8841
ag16
(g26
g18
Ntp1217
Rp1218
(lp1219
I1350918353
aI246049572
abaS'ardrone_base_link'
p1220
abaF62.0
aI3
aI8
aI-128
aI168
aI101988
aI439
aF0.13441112637519836
aF99.19892120361328
aF0.0
aF0.7490000128746033
aF-0.10999999940395355
aF-0.3490000069141388
aI1476
aF190.2991485595703
aF-1592.7490234375
aF-0.0
aF0.047596510499715805
aF0.12270854413509369
aF0.9606730341911316
aI0
a(ta(ta(ta(ta(ta(ta(taF119915560.0
abag16
(g17
g18
Ntp1221
Rp1222
(lp1223
g16
(g22
g18
Ntp1224
Rp1225
(lp1226
I8842
ag16
(g26
g18
Ntp1227
Rp1228
(lp1229
I1350918353
aI306046193
abaS'ardrone_base_link'
p1230
abaF62.0
aI3
aI23
aI-123
aI165
aI101994
aI439
aF0.13378196954727173
aF98.94715881347656
aF0.0
aF-4.510000228881836
aF0.17399999499320984
aF-0.2619999945163727
aI1474
aF150.89634704589844
aF-1472.0677490234375
aF-0.0
aF0.04807116091251373
aF0.1287795454263687
aF0.9912257194519043
aI0
a(ta(ta(ta(ta(ta(ta(taF119980808.0
abag16
(g17
g18
Ntp1231
Rp1232
(lp1233
g16
(g22
g18
Ntp1234
Rp1235
(lp1236
I8843
ag16
(g26
g18
Ntp1237
Rp1238
(lp1239
I1350918353
aI372126036
abaS'ardrone_base_link'
p1240
abaF62.0
aI3
aI34
aI-122
aI168
aI101982
aI439
aF0.1396656185388565
aF98.70387268066406
aF0.0
aF-9.064000129699707
aF0.2370000034570694
aF-0.1679999977350235
aI1476
aF115.17243194580078
aF-1463.27734375
aF-0.0
aF0.05090963840484619
aF0.12995319068431854
aF0.9759936332702637
aI0
a(ta(ta(ta(ta(ta(ta(taF120045632.0
abag16
(g17
g18
Ntp1241
Rp1242
(lp1243
g16
(g22
g18
Ntp1244
Rp1245
(lp1246
I8844
ag16
(g26
g18
Ntp1247
Rp1248
(lp1249
I1350918353
aI452244575
abaS'ardrone_base_link'
p1250
abaF62.0
aI3
aI41
aI-129
aI173
aI101975
aI439
aF0.14203888177871704
aF98.01593780517578
aF0.0
aF-12.399999618530273
aF0.29499998688697815
aF-0.10599999874830246
aI1477
aF122.30765533447266
aF-1369.6318359375
aF-0.0
aF0.05989113450050354
aF0.11105307191610336
aF0.9968982338905334
aI0
a(ta(ta(ta(ta(ta(ta(taF120110720.0
abag16
(g17
g18
Ntp1251
Rp1252
(lp1253
g16
(g22
g18
Ntp1254
Rp1255
(lp1256
I8845
ag16
(g26
g18
Ntp1257
Rp1258
(lp1259
I1350918353
aI510240417
abaS'ardrone_base_link'
p1260
abaF62.0
aI3
aI38
aI-128
aI168
aI102016
aI439
aF0.14088277518749237
aF97.44710540771484
aF0.0
aF-14.347000122070312
aF0.20999999344348907
aF-0.017999999225139618
aI1478
aF127.69879913330078
aF-1162.0115966796875
aF-0.0
aF0.04999067634344101
aF0.09856326878070831
aF0.9474176168441772
aI0
a(ta(ta(ta(ta(ta(ta(taF120175784.0
abag16
(g17
g18
Ntp1261
Rp1262
(lp1263
g16
(g22
g18
Ntp1264
Rp1265
(lp1266
I8846
ag16
(g26
g18
Ntp1267
Rp1268
(lp1269
I1350918353
aI574517045
abaS'ardrone_base_link'
p1270
abaF62.0
aI3
aI45
aI-125
aI165
aI101991
aI439
aF0.13980363309383392
aF98.21715545654297
aF0.0
aF-15.027000427246094
aF-0.03799999877810478
aF0.05299999937415123
aI1478
aF82.2538070678711
aF-926.7781982421875
aF-0.0
aF0.049239810556173325
aF0.07492177188396454
aF0.9925944209098816
aI0
a(ta(ta(ta(ta(ta(ta(taF120240944.0
abag16
(g17
g18
Ntp1271
Rp1272
(lp1273
g16
(g22
g18
Ntp1274
Rp1275
(lp1276
I8847
ag16
(g26
g18
Ntp1277
Rp1278
(lp1279
I1350918353
aI626044282
abaS'ardrone_base_link'
p1280
abaF62.0
aI3
aI40
aI-124
aI172
aI101991
aI439
aF0.13763226568698883
aF97.92736053466797
aF0.0
aF-14.82800006866455
aF-0.210999995470047
aF0.0729999989271164
aI1482
aF95.32003784179688
aF-706.8894653320312
aF-0.0
aF0.039411574602127075
aF0.06548278778791428
aF1.000180959701538
aI0
a(ta(ta(ta(ta(ta(ta(taF120305856.0
abag16
(g17
g18
Ntp1281
Rp1282
(lp1283
g16
(g22
g18
Ntp1284
Rp1285
(lp1286
I8848
ag16
(g26
g18
Ntp1287
Rp1288
(lp1289
I1350918353
aI718278900
abaS'ardrone_base_link'
p1290
abaF62.0
aI3
aI43
aI-121
aI169
aI101972
aI439
aF0.1346070021390915
aF98.98674011230469
aF0.0
aF-14.194000244140625
aF-0.40400001406669617
aF0.05400000140070915
aI1482
aF105.77153015136719
aF-499.7845764160156
aF-0.0
aF0.044410690665245056
aF0.057151101529598236
aF1.0197252035140991
aI0
a(ta(ta(ta(ta(ta(ta(taF120371072.0
abag16
(g17
g18
Ntp1291
Rp1292
(lp1293
g16
(g22
g18
Ntp1294
Rp1295
(lp1296
I8849
ag16
(g26
g18
Ntp1297
Rp1298
(lp1299
I1350918353
aI772800116
abaS'ardrone_base_link'
p1300
abaF62.0
aI3
aI42
aI-124
aI168
aI101985
aI439
aF0.1311478167772293
aF99.13800048828125
aF0.0
aF-13.326000213623047
aF-0.5410000085830688
aF0.014000000432133675
aI1481
aF91.7219009399414
aF-318.1553649902344
aF-0.0
aF0.053379468619823456
aF0.03290756046772003
aF0.9935685396194458
aI0
a(ta(ta(ta(ta(ta(ta(taF120436008.0
abag16
(g17
g18
Ntp1301
Rp1302
(lp1303
g16
(g22
g18
Ntp1304
Rp1305
(lp1306
I8850
ag16
(g26
g18
Ntp1307
Rp1308
(lp1309
I1350918353
aI834490389
abaS'ardrone_base_link'
p1310
abaF62.0
aI3
aI41
aI-125
aI169
aI101988
aI439
aF0.1267387866973877
aF99.40945434570312
aF0.0
aF-12.52400016784668
aF-0.48500001430511475
aF-0.07599999755620956
aI1483
aF79.11711883544922
aF-118.04481506347656
aF-0.0
aF0.052610065788030624
aF0.02047555334866047
aF0.9819539189338684
aI0
a(ta(ta(ta(ta(ta(ta(taF120501104.0
abag16
(g17
g18
Ntp1311
Rp1312
(lp1313
g16
(g22
g18
Ntp1314
Rp1315
(lp1316
I8851
ag16
(g26
g18
Ntp1317
Rp1318
(lp1319
I1350918353
aI886151043
abaS'ardrone_base_link'
p1320
abaF62.0
aI3
aI35
aI-125
aI169
aI101991
aI439
aF0.12373261153697968
aF99.728515625
aF0.0
aF-11.744000434875488
aF-0.36399999260902405
aF-0.20100000500679016
aI1481
aF64.7011947631836
aF15.993483543395996
aF-0.0
aF0.04847048595547676
aF0.0016849940875545144
aF1.0043870210647583
aI0
a(ta(ta(ta(ta(ta(ta(taF121663320.0
abag16
(g17
g18
Ntp1321
Rp1322
(lp1323
g16
(g22
g18
Ntp1324
Rp1325
(lp1326
I8852
ag16
(g26
g18
Ntp1327
Rp1328
(lp1329
I1350918353
aI951986956
abaS'ardrone_base_link'
p1330
abaF62.0
aI3
aI37
aI-127
aI169
aI101998
aI439
aF0.12117070704698563
aF100.67131042480469
aF0.0
aF-11.062000274658203
aF-0.26899999380111694
aF-0.31200000643730164
aI1478
aF46.53860092163086
aF145.67333984375
aF-0.0
aF0.04364627227187157
aF-0.01029400434345007
aF1.0034645795822144
aI0
a(ta(ta(ta(ta(ta(ta(taF121728352.0
abag16
(g17
g18
Ntp1331
Rp1332
(lp1333
g16
(g22
g18
Ntp1334
Rp1335
(lp1336
I8853
ag16
(g26
g18
Ntp1337
Rp1338
(lp1339
I1350918354
aI26083757
abaS'ardrone_base_link'
p1340
abaF62.0
aI3
aI33
aI-121
aI173
aI101991
aI439
aF0.11867757886648178
aF101.503173828125
aF0.0
aF-10.45300006866455
aF-0.18299999833106995
aF-0.4050000011920929
aI1476
aF25.19673728942871
aF265.86810302734375
aF-0.0
aF0.04679851606488228
aF-0.014438241720199585
aF0.9977482557296753
aI0
a(ta(ta(ta(ta(ta(ta(taF121793416.0
abag16
(g17
g18
Ntp1341
Rp1342
(lp1343
g16
(g22
g18
Ntp1344
Rp1345
(lp1346
I8854
ag16
(g26
g18
Ntp1347
Rp1348
(lp1349
I1350918354
aI86147591
abaS'ardrone_base_link'
p1350
abaF62.0
aI3
aI41
aI-123
aI165
aI102001
aI439
aF0.11460548639297485
aF101.71036529541016
aF0.0
aF-9.897000312805176
aF-0.12700000405311584
aF-0.47999998927116394
aI1475
aF39.626731872558594
aF397.5082702636719
aF-0.0
aF0.04184996336698532
aF-0.02614092454314232
aF0.9918004274368286
aI0
a(ta(ta(ta(ta(ta(ta(taF121858480.0
abag16
(g17
g18
Ntp1351
Rp1352
(lp1353
g16
(g22
g18
Ntp1354
Rp1355
(lp1356
I8855
ag16
(g26
g18
Ntp1357
Rp1358
(lp1359
I1350918354
aI170659944
abaS'ardrone_base_link'
p1360
abaF62.0
aI3
aI32
aI-126
aI172
aI101991
aI439
aF0.10987599194049835
aF101.85956573486328
aF0.0
aF-9.465999603271484
aF-0.07400000095367432
aF-0.5550000071525574
aI1472
aF49.24239730834961
aF510.2674865722656
aF-0.0
aF0.05194375291466713
aF-0.03858756646513939
aF0.9447807669639587
aI0
a(ta(ta(ta(ta(ta(ta(taF121923512.0
abag16
(g17
g18
Ntp1361
Rp1362
(lp1363
g16
(g22
g18
Ntp1364
Rp1365
(lp1366
I8856
ag16
(g26
g18
Ntp1367
Rp1368
(lp1369
I1350918354
aI226044534
abaS'ardrone_base_link'
p1370
abaF62.0
aI3
aI34
aI-124
aI168
aI101998
aI439
aF0.10567881166934967
aF101.5955810546875
aF0.0
aF-9.230999946594238
aF-0.125
aF-0.5870000123977661
aI1474
aF62.80302810668945
aF607.6776733398438
aF-0.0
aF0.05012747645378113
aF-0.045545246452093124
aF0.8834499716758728
aI0
a(ta(ta(ta(ta(ta(ta(taF121988664.0
abag16
(g17
g18
Ntp1371
Rp1372
(lp1373
g16
(g22
g18
Ntp1374
Rp1375
(lp1376
I8857
ag16
(g26
g18
Ntp1377
Rp1378
(lp1379
I1350918354
aI288983995
abaS'ardrone_base_link'
p1380
abaF62.0
aI3
aI33
aI-129
aI171
aI101985
aI439
aF0.10218225419521332
aF101.53633880615234
aF0.0
aF-9.008999824523926
aF-0.11400000005960464
aF-0.6330000162124634
aI1479
aF55.18229675292969
aF683.6550903320312
aF-0.0
aF0.05030296370387077
aF-0.050288859754800797
aF0.9544296860694885
aI0
a(ta(ta(ta(ta(ta(ta(taF122053608.0
abag16
(g17
g18
Ntp1381
Rp1382
(lp1383
g16
(g22
g18
Ntp1384
Rp1385
(lp1386
I8858
ag16
(g26
g18
Ntp1387
Rp1388
(lp1389
I1350918354
aI349176515
abaS'ardrone_base_link'
p1390
abaF62.0
aI3
aI33
aI-127
aI165
aI101991
aI439
aF0.099361352622509
aF102.2405014038086
aF0.0
aF-8.767999649047852
aF-0.07000000029802322
aF-0.6579999923706055
aI1486
aF50.352481842041016
aF746.8671875
aF-0.0
aF0.04389951378107071
aF-0.06116494536399841
aF0.9863533973693848
aI0
a(ta(ta(ta(ta(ta(ta(taF122118736.0
abag16
(g17
g18
Ntp1391
Rp1392
(lp1393
g16
(g22
g18
Ntp1394
Rp1395
(lp1396
I8859
ag16
(g26
g18
Ntp1397
Rp1398
(lp1399
I1350918354
aI406477983
abaS'ardrone_base_link'
p1400
abaF62.0
aI3
aI33
aI-127
aI167
aI101982
aI439
aF0.09605421870946884
aF102.56634521484375
aF0.0
aF-8.54800033569336
aF-0.03099999949336052
aF-0.6930000185966492
aI1504
aF58.66635513305664
aF838.3143310546875
aF-0.0
aF0.036966126412153244
aF-0.0719761997461319
aF0.9508726596832275
aI0
a(ta(ta(ta(ta(ta(ta(taF122184040.0
abag16
(g17
g18
Ntp1401
Rp1402
(lp1403
g16
(g22
g18
Ntp1404
Rp1405
(lp1406
I8860
ag16
(g26
g18
Ntp1407
Rp1408
(lp1409
I1350918354
aI486048944
abaS'ardrone_base_link'
p1410
abaF62.0
aI3
aI32
aI-126
aI170
aI101969
aI439
aF0.09213107824325562
aF103.58895111083984
aF0.0
aF-8.34000015258789
aF0.024000000208616257
aF-0.7260000109672546
aI1502
aF56.32049560546875
aF908.7267456054688
aF-0.0
aF0.04141790047287941
aF-0.06374301761388779
aF0.93470698595047
aI0
a(ta(ta(ta(ta(ta(ta(taF122248832.0
abag16
(g17
g18
Ntp1411
Rp1412
(lp1413
g16
(g22
g18
Ntp1414
Rp1415
(lp1416
I8861
ag16
(g26
g18
Ntp1417
Rp1418
(lp1419
I1350918354
aI548790527
abaS'ardrone_base_link'
p1420
abaF62.0
aI3
aI34
aI-126
aI170
aI101982
aI439
aF0.08861906081438065
aF104.19365692138672
aF0.0
aF-8.175000190734863
aF0.09799999743700027
aF-0.7680000066757202
aI1509
aF50.301937103271484
aF955.1528930664062
aF-0.0
aF0.04483001306653023
aF-0.07033973187208176
aF0.9390627145767212
aI0
a(ta(ta(ta(ta(ta(ta(taF122313896.0
abag16
(g17
g18
Ntp1421
Rp1422
(lp1423
g16
(g22
g18
Ntp1424
Rp1425
(lp1426
I8862
ag16
(g26
g18
Ntp1427
Rp1428
(lp1429
I1350918354
aI606102652
abaS'ardrone_base_link'
p1430
abaF62.0
aI3
aI32
aI-122
aI168
aI101994
aI439
aF0.08600512146949768
aF104.06465148925781
aF0.0
aF-8.015999794006348
aF0.18400000035762787
aF-0.8420000076293945
aI1518
aF63.36455535888672
aF984.4280395507812
aF-0.0
aF0.04351889714598656
aF-0.07954055070877075
aF0.9408379197120667
aI0
a(ta(ta(ta(ta(ta(ta(taF122378928.0
abag16
(g17
g18
Ntp1431
Rp1432
(lp1433
g16
(g22
g18
Ntp1434
Rp1435
(lp1436
I8863
ag16
(g26
g18
Ntp1437
Rp1438
(lp1439
I1350918354
aI671637888
abaS'ardrone_base_link'
p1440
abaF62.0
aI3
aI28
aI-126
aI170
aI101998
aI439
aF0.08219300955533981
aF104.70954895019531
aF0.0
aF-7.8979997634887695
aF0.17100000381469727
aF-0.9300000071525574
aI1517
aF67.66620635986328
aF1035.8304443359375
aF-0.0
aF0.04065230116248131
aF-0.08901398628950119
aF0.9345222115516663
aI0
a(ta(ta(ta(ta(ta(ta(taF122443992.0
abag16
(g17
g18
Ntp1441
Rp1442
(lp1443
g16
(g22
g18
Ntp1444
Rp1445
(lp1446
I8864
ag16
(g26
g18
Ntp1447
Rp1448
(lp1449
I1350918354
aI733572351
abaS'ardrone_base_link'
p1450
abaF62.0
aI3
aI35
aI-127
aI173
aI101994
aI439
aF0.08019230514764786
aF105.39753723144531
aF0.0
aF-7.789000034332275
aF0.06800000369548798
aF-1.0149999856948853
aI1511
aF56.302188873291016
aF1054.8477783203125
aF-0.0
aF0.03523329272866249
aF-0.08338630944490433
aF0.8792816400527954
aI0
a(ta(ta(ta(ta(ta(ta(taF122509176.0
abag16
(g17
g18
Ntp1451
Rp1452
(lp1453
g16
(g22
g18
Ntp1454
Rp1455
(lp1456
I8865
ag16
(g26
g18
Ntp1457
Rp1458
(lp1459
I1350918354
aI806107158
abaS'ardrone_base_link'
p1460
abaF62.0
aI3
aI32
aI-130
aI166
aI101991
aI439
aF0.07831765711307526
aF106.2695541381836
aF0.0
aF-7.801000118255615
aF-0.04100000113248825
aF-1.1130000352859497
aI1504
aF41.633907318115234
aF1073.3798828125
aF-0.0
aF0.0530148483812809
aF-0.08900047838687897
aF0.970196545124054
aI0
a(ta(ta(ta(ta(ta(ta(taF122574088.0
abag16
(g17
g18
Ntp1461
Rp1462
(lp1463
g16
(g22
g18
Ntp1464
Rp1465
(lp1466
I8866
ag16
(g26
g18
Ntp1467
Rp1468
(lp1469
I1350918354
aI873050843
abaS'ardrone_base_link'
p1470
abaF62.0
aI3
aI28
aI-130
aI168
aI101998
aI439
aF0.07756751775741577
aF105.54972076416016
aF0.0
aF-7.889999866485596
aF-0.03700000047683716
aF-1.1990000009536743
aI1504
aF63.86726379394531
aF1077.133544921875
aF-0.0
aF0.044171448796987534
aF-0.09796981513500214
aF0.9718829989433289
aI0
a(ta(ta(ta(ta(ta(ta(taF123736336.0
abag16
(g17
g18
Ntp1471
Rp1472
(lp1473
g16
(g22
g18
Ntp1474
Rp1475
(lp1476
I8867
ag16
(g26
g18
Ntp1477
Rp1478
(lp1479
I1350918354
aI926048538
abaS'ardrone_base_link'
p1480
abaF62.0
aI3
aI29
aI-123
aI171
aI101988
aI439
aF0.07515359669923782
aF106.7951431274414
aF0.0
aF-8.0600004196167
aF-0.19200000166893005
aF-1.2619999647140503
aI1502
aF36.5733642578125
aF1136.900146484375
aF-0.0
aF0.04592430591583252
aF-0.09424399584531784
aF0.9701082706451416
aI0
a(ta(ta(ta(ta(ta(ta(taF123801640.0
abag16
(g17
g18
Ntp1481
Rp1482
(lp1483
g16
(g22
g18
Ntp1484
Rp1485
(lp1486
I8868
ag16
(g26
g18
Ntp1487
Rp1488
(lp1489
I1350918355
aI6055952
abaS'ardrone_base_link'
p1490
abaF62.0
aI3
aI29
aI-123
aI171
aI101972
aI439
aF0.07521480321884155
aF107.03202056884766
aF0.0
aF-8.168000221252441
aF-0.2680000066757202
aF-1.350000023841858
aI1499
aF24.106597900390625
aF1137.4114990234375
aF-0.0
aF0.048212189227342606
aF-0.10176906734704971
aF0.9689854979515076
aI0
a(ta(ta(ta(ta(ta(ta(taF123866456.0
abag16
(g17
g18
Ntp1491
Rp1492
(lp1493
g16
(g22
g18
Ntp1494
Rp1495
(lp1496
I8869
ag16
(g26
g18
Ntp1497
Rp1498
(lp1499
I1350918355
aI68788034
abaS'ardrone_base_link'
p1500
abaF62.0
aI3
aI34
aI-124
aI168
aI101982
aI439
aF0.07380694895982742
aF107.50598907470703
aF0.0
aF-8.284000396728516
aF-0.20800000429153442
aF-1.4470000267028809
aI1511
aF24.28545379638672
aF1179.082763671875
aF-0.0
aF0.043850790709257126
aF-0.100796177983284
aF0.9075637459754944
aI0
a(ta(ta(ta(ta(ta(ta(taF123931552.0
abag16
(g17
g18
Ntp1501
Rp1502
(lp1503
g16
(g22
g18
Ntp1504
Rp1505
(lp1506
I8870
ag16
(g26
g18
Ntp1507
Rp1508
(lp1509
I1350918355
aI126100827
abaS'ardrone_base_link'
p1510
abaF62.0
aI3
aI36
aI-124
aI170
aI101988
aI439
aF0.07149291783571243
aF107.60965728759766
aF0.0
aF-8.388999938964844
aF-0.1080000028014183
aF-1.569000005722046
aI1507
aF35.12964630126953
aF1226.2120361328125
aF-0.0
aF0.055529698729515076
aF-0.11189780384302139
aF0.9359119534492493
aI0
a(ta(ta(ta(ta(ta(ta(taF123996616.0
abag16
(g17
g18
Ntp1511
Rp1512
(lp1513
g16
(g22
g18
Ntp1514
Rp1515
(lp1516
I8871
ag16
(g26
g18
Ntp1517
Rp1518
(lp1519
I1350918355
aI206078389
abaS'ardrone_base_link'
p1520
abaF62.0
aI3
aI30
aI-128
aI170
aI101972
aI439
aF0.0660761222243309
aF109.20122528076172
aF0.0
aF-8.555999755859375
aF-0.02800000086426735
aF-1.6740000247955322
aI1512
aF27.595556259155273
aF1354.4808349609375
aF-0.0
aF0.044597044587135315
aF-0.10812138020992279
aF0.919557511806488
aI0
a(ta(ta(ta(ta(ta(ta(taF124061616.0
abag16
(g17
g18
Ntp1521
Rp1522
(lp1523
g16
(g22
g18
Ntp1524
Rp1525
(lp1526
I8872
ag16
(g26
g18
Ntp1527
Rp1528
(lp1529
I1350918355
aI266047333
abaS'ardrone_base_link'
p1530
abaF62.0
aI3
aI32
aI-130
aI166
aI101982
aI439
aF0.06008358299732208
aF111.31986999511719
aF0.0
aF-8.63599967956543
aF0.15299999713897705
aF-1.7829999923706055
aI1513
aF33.889137268066406
aF1450.558837890625
aF-0.0
aF0.0445186123251915
aF-0.11249817907810211
aF0.9150026440620422
aI0
a(ta(ta(ta(ta(ta(ta(taF124126776.0
abag16
(g17
g18
Ntp1531
Rp1532
(lp1533
g16
(g22
g18
Ntp1534
Rp1535
(lp1536
I8873
ag16
(g26
g18
Ntp1537
Rp1538
(lp1539
I1350918355
aI337210386
abaS'ardrone_base_link'
p1540
abaF62.0
aI3
aI31
aI-125
aI163
aI101985
aI439
aF0.05516895651817322
aF113.3405532836914
aF0.0
aF-8.736000061035156
aF0.16599999368190765
aF-1.871000051498413
aI1511
aF41.60185623168945
aF1511.4189453125
aF-0.0
aF0.04336133226752281
aF-0.11808836460113525
aF0.9191898107528687
aI0
a(ta(ta(ta(ta(ta(ta(taF124191680.0
abag16
(g17
g18
Ntp1541
Rp1542
(lp1543
g16
(g22
g18
Ntp1544
Rp1545
(lp1546
I8874
ag16
(g26
g18
Ntp1547
Rp1548
(lp1549
I1350918355
aI386105742
abaS'ardrone_base_link'
p1550
abaF62.0
aI3
aI31
aI-127
aI167
aI102013
aI439
aF0.05008281394839287
aF115.4299545288086
aF0.0
aF-8.786999702453613
aF0.10100000351667404
aF-1.9730000495910645
aI1503
aF36.416446685791016
aF1549.4915771484375
aF-0.0
aF0.04742119088768959
aF-0.11213667690753937
aF0.940381646156311
aI0
a(ta(ta(ta(ta(ta(ta(taF124256840.0
abag16
(g17
g18
Ntp1551
Rp1552
(lp1553
g16
(g22
g18
Ntp1554
Rp1555
(lp1556
I8875
ag16
(g26
g18
Ntp1557
Rp1558
(lp1559
I1350918355
aI449329492
abaS'ardrone_base_link'
p1560
abaF62.0
aI3
aI37
aI-121
aI167
aI101998
aI439
aF0.048477835953235626
aF118.4551010131836
aF0.0
aF-8.973999977111816
aF0.2549999952316284
aF-2.0309998989105225
aI1496
aF13.871442794799805
aF1546.12353515625
aF-0.0
aF0.04804201051592827
aF-0.11869024485349655
aF0.9434433579444885
aI0
a(ta(ta(ta(ta(ta(ta(taF124321840.0
abag16
(g17
g18
Ntp1561
Rp1562
(lp1563
g16
(g22
g18
Ntp1564
Rp1565
(lp1566
I8876
ag16
(g26
g18
Ntp1567
Rp1568
(lp1569
I1350918355
aI526048113
abaS'ardrone_base_link'
p1570
abaF62.0
aI3
aI30
aI-132
aI168
aI101998
aI439
aF0.045844875276088715
aF119.89210510253906
aF0.0
aF-9.144000053405762
aF0.34700000286102295
aF-2.191999912261963
aI1495
aF34.67755889892578
aF1572.9698486328125
aF-0.0
aF0.04226769506931305
aF-0.1292867511510849
aF0.8672115802764893
aI0
a(ta(ta(ta(ta(ta(ta(taF124386816.0
abag16
(g17
g18
Ntp1571
Rp1572
(lp1573
g16
(g22
g18
Ntp1574
Rp1575
(lp1576
I8877
ag16
(g26
g18
Ntp1577
Rp1578
(lp1579
I1350918355
aI589234185
abaS'ardrone_base_link'
p1580
abaF62.0
aI3
aI34
aI-126
aI168
aI102025
aI439
aF0.04490864276885986
aF120.69739532470703
aF0.0
aF-9.166999816894531
aF0.28299999237060547
aF-2.265000104904175
aI1494
aF28.691213607788086
aF1559.43408203125
aF-0.0
aF0.050727296620607376
aF-0.1215619295835495
aF0.9405233860015869
aI0
a(ta(ta(ta(ta(ta(ta(taF124452000.0
abag16
(g17
g18
Ntp1581
Rp1582
(lp1583
g16
(g22
g18
Ntp1584
Rp1585
(lp1586
I8878
ag16
(g26
g18
Ntp1587
Rp1588
(lp1589
I1350918355
aI648728789
abaS'ardrone_base_link'
p1590
abaF62.0
aI3
aI38
aI-124
aI168
aI101979
aI439
aF0.04211847484111786
aF122.58921813964844
aF0.0
aF-9.23799991607666
aF0.25999999046325684
aF-2.378000020980835
aI1492
aF20.155174255371094
aF1599.625
aF-0.0
aF0.049933142960071564
aF-0.13110555708408356
aF0.9427443742752075
aI0
a(ta(ta(ta(ta(ta(ta(taF124517032.0
abag16
(g17
g18
Ntp1591
Rp1592
(lp1593
g16
(g22
g18
Ntp1594
Rp1595
(lp1596
I8879
ag16
(g26
g18
Ntp1597
Rp1598
(lp1599
I1350918355
aI709103207
abaS'ardrone_base_link'
p1600
abaF62.0
aI3
aI36
aI-132
aI162
aI101966
aI439
aF0.04120951518416405
aF123.2732925415039
aF0.0
aF-9.288000106811523
aF0.3059999942779541
aF-2.51200008392334
aI1493
aF22.19888687133789
aF1600.1126708984375
aF-0.0
aF0.045700881630182266
aF-0.14469313621520996
aF0.953094482421875
aI0
a(ta(ta(ta(ta(ta(ta(taF124582032.0
abag16
(g17
g18
Ntp1601
Rp1602
(lp1603
g16
(g22
g18
Ntp1604
Rp1605
(lp1606
I8880
ag16
(g26
g18
Ntp1607
Rp1608
(lp1609
I1350918355
aI786042856
abaS'ardrone_base_link'
p1610
abaF62.0
aI3
aI40
aI-124
aI168
aI101994
aI439
aF0.041796647012233734
aF123.2699203491211
aF0.0
aF-9.333999633789062
aF0.33500000834465027
aF-2.632999897003174
aI1495
aF19.78333282470703
aF1589.7078857421875
aF-0.0
aF0.05122045800089836
aF-0.1387924700975418
aF0.8570437431335449
aI0
a(ta(ta(ta(ta(ta(ta(taF124647312.0
abag16
(g17
g18
Ntp1611
Rp1612
(lp1613
g16
(g22
g18
Ntp1614
Rp1615
(lp1616
I8881
ag16
(g26
g18
Ntp1617
Rp1618
(lp1619
I1350918355
aI854279795
abaS'ardrone_base_link'
p1620
abaF62.0
aI3
aI40
aI-124
aI170
aI101982
aI439
aF0.0415119044482708
aF123.1642837524414
aF0.0
aF-9.286999702453613
aF0.3059999942779541
aF-2.7829999923706055
aI1497
aF23.42013931274414
aF1590.4935302734375
aF-0.0
aF0.051073335111141205
aF-0.1427791714668274
aF0.9401984214782715
aI0
a(ta(ta(ta(ta(ta(ta(taF124712192.0
abag16
(g17
g18
Ntp1621
Rp1622
(lp1623
g16
(g22
g18
Ntp1624
Rp1625
(lp1626
I8882
ag16
(g26
g18
Ntp1627
Rp1628
(lp1629
I1350918355
aI909478225
abaS'ardrone_base_link'
p1630
abaF62.0
aI3
aI33
aI-123
aI167
aI101966
aI439
aF0.04033510014414787
aF122.68111419677734
aF0.0
aF-9.3100004196167
aF0.36000001430511475
aF-2.9549999237060547
aI1509
aF41.65739822387695
aF1611.70166015625
aF-0.0
aF0.0452568419277668
aF-0.13767516613006592
aF0.9148768186569214
aI0
a(ta(ta(ta(ta(ta(ta(taF125874472.0
abag16
(g17
g18
Ntp1631
Rp1632
(lp1633
g16
(g22
g18
Ntp1634
Rp1635
(lp1636
I8883
ag16
(g26
g18
Ntp1637
Rp1638
(lp1639
I1350918355
aI986067587
abaS'ardrone_base_link'
p1640
abaF62.0
aI3
aI29
aI-129
aI169
aI101985
aI439
aF0.04011959210038185
aF123.47649383544922
aF0.0
aF-9.270999908447266
aF0.33500000834465027
aF-3.0929999351501465
aI1504
aF40.8882942199707
aF1616.8245849609375
aF-0.0
aF0.0384635329246521
aF-0.1479082703590393
aF0.9345374703407288
aI0
a(ta(ta(ta(ta(ta(ta(taF125939440.0
abag16
(g17
g18
Ntp1641
Rp1642
(lp1643
g16
(g22
g18
Ntp1644
Rp1645
(lp1646
I8884
ag16
(g26
g18
Ntp1647
Rp1648
(lp1649
I1350918356
aI49224028
abaS'ardrone_base_link'
p1650
abaF62.0
aI3
aI35
aI-127
aI173
aI101985
aI439
aF0.0421149916946888
aF123.18279266357422
aF0.0
aF-9.32699966430664
aF0.3100000023841858
aF-3.24399995803833
aI1496
aF34.70778274536133
aF1585.979736328125
aF-0.0
aF0.04180765524506569
aF-0.14562328159809113
aF0.9254724383354187
aI0
a(ta(ta(ta(ta(ta(ta(taF126004720.0
abag16
(g17
g18
Ntp1651
Rp1652
(lp1653
g16
(g22
g18
Ntp1654
Rp1655
(lp1656
I8885
ag16
(g26
g18
Ntp1657
Rp1658
(lp1659
I1350918356
aI106051333
abaS'ardrone_base_link'
p1660
abaF62.0
aI3
aI33
aI-123
aI167
aI101975
aI439
aF0.04274195060133934
aF122.54583740234375
aF0.0
aF-9.12600040435791
aF0.23100000619888306
aF-3.4230000972747803
aI1489
aF67.37532043457031
aF1590.1287841796875
aF-0.0
aF0.03211621567606926
aF-0.1353764533996582
aF0.8981219530105591
aI0
a(ta(ta(ta(ta(ta(ta(taF126069688.0
abag16
(g17
g18
Ntp1661
Rp1662
(lp1663
g16
(g22
g18
Ntp1664
Rp1665
(lp1666
I8886
ag16
(g26
g18
Ntp1667
Rp1668
(lp1669
I1350918356
aI166108366
abaS'ardrone_base_link'
p1670
abaF62.0
aI3
aI25
aI-125
aI171
aI101969
aI439
aF0.03727760165929794
aF125.64208221435547
aF0.0
aF-6.677000045776367
aF0.03500000014901161
aF-3.619999885559082
aI1490
aF43.433109283447266
aF1705.981201171875
aF-0.0
aF0.06449299305677414
aF-0.14952614903450012
aF0.9641630053520203
aI0
a(ta(ta(ta(ta(ta(ta(taF126134632.0
abag16
(g17
g18
Ntp1671
Rp1672
(lp1673
g16
(g22
g18
Ntp1674
Rp1675
(lp1676
I8887
ag16
(g26
g18
Ntp1677
Rp1678
(lp1679
I1350918356
aI234688602
abaS'ardrone_base_link'
p1680
abaF62.0
aI3
aI19
aI-127
aI169
aI101985
aI439
aF0.035118814557790756
aF131.92967224121094
aF0.0
aF-1.840000033378601
aF-0.16500000655651093
aF-3.796999931335449
aI1485
aF-46.47025680541992
aF1718.2969970703125
aF-0.0
aF0.052669424563646317
aF-0.16122139990329742
aF1.0000956058502197
aI0
a(ta(ta(ta(ta(ta(ta(taF126199664.0
abag16
(g17
g18
Ntp1681
Rp1682
(lp1683
g16
(g22
g18
Ntp1684
Rp1685
(lp1686
I8888
ag16
(g26
g18
Ntp1687
Rp1688
(lp1689
I1350918356
aI308785634
abaS'ardrone_base_link'
p1690
abaF62.0
aI3
aI12
aI-126
aI162
aI101994
aI439
aF0.031189143657684326
aF133.4858856201172
aF0.0
aF3.3570001125335693
aF-0.1770000010728836
aF-3.9509999752044678
aI1488
aF-17.89950180053711
aF1678.2362060546875
aF-0.0
aF0.03744028881192207
aF-0.16269101202487946
aF0.8505441546440125
aI0
a(ta(ta(ta(ta(ta(ta(taF126264848.0
abag16
(g17
g18
Ntp1691
Rp1692
(lp1693
g16
(g22
g18
Ntp1694
Rp1695
(lp1696
I8889
ag16
(g26
g18
Ntp1697
Rp1698
(lp1699
I1350918356
aI366056725
abaS'ardrone_base_link'
p1700
abaF62.0
aI3
aI-3
aI-129
aI167
aI102004
aI439
aF0.028444163501262665
aF130.8503875732422
aF0.0
aF8.112000465393066
aF-0.0729999989271164
aF-4.111999988555908
aI1487
aF51.2512321472168
aF1586.090087890625
aF-0.0
aF0.04203387349843979
aF-0.1575571447610855
aF0.971560537815094
aI0
a(ta(ta(ta(ta(ta(ta(taF126329792.0
abag16
(g17
g18
Ntp1701
Rp1702
(lp1703
g16
(g22
g18
Ntp1704
Rp1705
(lp1706
I8890
ag16
(g26
g18
Ntp1707
Rp1708
(lp1709
I1350918356
aI426060757
abaS'ardrone_base_link'
p1710
abaF62.0
aI3
aI-14
aI-126
aI170
aI101982
aI439
aF0.029897570610046387
aF131.2266082763672
aF0.0
aF11.734999656677246
aF-0.09300000220537186
aF-4.2210001945495605
aI1492
aF12.54955768585205
aF1387.793701171875
aF-0.0
aF0.0396086722612381
aF-0.1548912078142166
aF0.972183883190155
aI0
a(ta(ta(ta(ta(ta(ta(taF126395072.0
abag16
(g17
g18
Ntp1711
Rp1712
(lp1713
g16
(g22
g18
Ntp1714
Rp1715
(lp1716
I8891
ag16
(g26
g18
Ntp1717
Rp1718
(lp1719
I1350918356
aI512250493
abaS'ardrone_base_link'
p1720
abaF62.0
aI3
aI-9
aI-129
aI171
aI101978
aI439
aF0.03453173115849495
aF130.89120483398438
aF0.0
aF13.99899959564209
aF-0.10000000149011612
aF-4.329999923706055
aI1499
aF-19.33439064025879
aF1155.8843994140625
aF-0.0
aF0.04587852582335472
aF-0.13375888764858246
aF0.9308768510818481
aI0
a(ta(ta(ta(ta(ta(ta(taF126459888.0
abag16
(g17
g18
Ntp1721
Rp1722
(lp1723
g16
(g22
g18
Ntp1724
Rp1725
(lp1726
I8892
ag16
(g26
g18
Ntp1727
Rp1728
(lp1729
I1350918356
aI566081762
abaS'ardrone_base_link'
p1730
abaF62.0
aI3
aI-20
aI-128
aI168
aI101985
aI439
aF0.037784453481435776
aF128.27227783203125
aF0.0
aF14.800000190734863
aF-0.1899999976158142
aF-4.414999961853027
aI1500
aF3.056576728820801
aF933.3920288085938
aF-0.0
aF0.04128699004650116
aF-0.11200282722711563
aF0.9121295213699341
aI0
a(ta(ta(ta(ta(ta(ta(taF126524984.0
abag16
(g17
g18
Ntp1731
Rp1732
(lp1733
g16
(g22
g18
Ntp1734
Rp1735
(lp1736
I8893
ag16
(g26
g18
Ntp1737
Rp1738
(lp1739
I1350918356
aI628669812
abaS'ardrone_base_link'
p1740
abaF62.0
aI3
aI-14
aI-122
aI166
aI101998
aI439
aF0.03914104402065277
aF125.47331237792969
aF0.0
aF14.41100025177002
aF-0.06499999761581421
aF-4.48799991607666
aI1499
aF41.13050079345703
aF736.3798828125
aF-0.0
aF0.04449490085244179
aF-0.0905972495675087
aF0.9902565479278564
aI0
a(ta(ta(ta(ta(ta(ta(taF126590072.0
abag16
(g17
g18
Ntp1741
Rp1742
(lp1743
g16
(g22
g18
Ntp1744
Rp1745
(lp1746
I8894
ag16
(g26
g18
Ntp1747
Rp1748
(lp1749
I1350918356
aI686226588
abaS'ardrone_base_link'
p1750
abaF62.0
aI3
aI-18
aI-124
aI174
aI101991
aI439
aF0.04019990935921669
aF123.8681640625
aF0.0
aF13.569000244140625
aF-0.25200000405311584
aF-4.541999816894531
aI1502
aF61.71607971191406
aF559.558837890625
aF-0.0
aF0.04534415155649185
aF-0.06458910554647446
aF1.0020074844360352
aI0
a(ta(ta(ta(ta(ta(ta(taF126655264.0
abag16
(g17
g18
Ntp1751
Rp1752
(lp1753
g16
(g22
g18
Ntp1754
Rp1755
(lp1756
I8895
ag16
(g26
g18
Ntp1757
Rp1758
(lp1759
I1350918356
aI766055208
abaS'ardrone_base_link'
p1760
abaF62.0
aI3
aI-10
aI-126
aI172
aI101969
aI439
aF0.04181654378771782
aF121.9013671875
aF0.0
aF12.678999900817871
aF-0.3659999966621399
aF-4.50600004196167
aI1498
aF70.00068664550781
aF399.894287109375
aF-0.0
aF0.04387281835079193
aF-0.060892969369888306
aF0.9897928833961487
aI0
a(ta(ta(ta(ta(ta(ta(taF126720112.0
abag16
(g17
g18
Ntp1761
Rp1762
(lp1763
g16
(g22
g18
Ntp1764
Rp1765
(lp1766
I8896
ag16
(g26
g18
Ntp1767
Rp1768
(lp1769
I1350918356
aI826058520
abaS'ardrone_base_link'
p1770
abaF62.0
aI3
aI-8
aI-118
aI168
aI102013
aI439
aF0.04334879666566849
aF120.31494903564453
aF0.0
aF11.876999855041504
aF-0.43700000643730164
aF-4.521999835968018
aI1497
aF74.58097839355469
aF242.2723846435547
aF-0.0
aF0.046360962092876434
aF-0.04583313316106796
aF0.9045112133026123
aI0
a(ta(ta(ta(ta(ta(ta(taF126785328.0
abag16
(g17
g18
Ntp1771
Rp1772
(lp1773
g16
(g22
g18
Ntp1774
Rp1775
(lp1776
I8897
ag16
(g26
g18
Ntp1777
Rp1778
(lp1779
I1350918356
aI888901311
abaS'ardrone_base_link'
p1780
abaF62.0
aI3
aI-14
aI-126
aI172
aI101982
aI439
aF0.04515721648931503
aF119.72208404541016
aF0.0
aF11.1850004196167
aF-0.4309999942779541
aF-4.434999942779541
aI1500
aF68.83527374267578
aF105.0047607421875
aF-0.0
aF0.0435960590839386
aF-0.03236265853047371
aF0.9975816011428833
aI0
a(ta(ta(ta(ta(ta(ta(taF127947392.0
abag16
(g17
g18
Ntp1781
Rp1782
(lp1783
g16
(g22
g18
Ntp1784
Rp1785
(lp1786
I8898
ag16
(g26
g18
Ntp1787
Rp1788
(lp1789
I1350918356
aI946054081
abaS'ardrone_base_link'
p1790
abaF62.0
aI3
aI-13
aI-121
aI173
aI101991
aI439
aF0.046168599277734756
aF117.8324203491211
aF0.0
aF10.597000122070312
aF-0.36399999260902405
aF-4.318999767303467
aI1500
aF84.25812530517578
aF-14.15804672241211
aF-0.0
aF0.04834291711449623
aF-0.020059917122125626
aF0.9586647748947144
aI0
a(ta(ta(ta(ta(ta(ta(taF128012512.0
abag16
(g17
g18
Ntp1791
Rp1792
(lp1793
g16
(g22
g18
Ntp1794
Rp1795
(lp1796
I8899
ag16
(g26
g18
Ntp1797
Rp1798
(lp1799
I1350918357
aI12441376
abaS'ardrone_base_link'
p1800
abaF62.0
aI3
aI-14
aI-126
aI168
aI101991
aI439
aF0.048294808715581894
aF114.79660034179688
aF0.0
aF10.10099983215332
aF-0.35899999737739563
aF-4.179999828338623
aI1497
aF95.83106994628906
aF-140.8293914794922
aF-0.0
aF0.04828466475009918
aF-0.0063422126695513725
aF0.9868832230567932
aI0
a(ta(ta(ta(ta(ta(ta(taF128077488.0
abag16
(g17
g18
Ntp1801
Rp1802
(lp1803
g16
(g22
g18
Ntp1804
Rp1805
(lp1806
I8900
ag16
(g26
g18
Ntp1807
Rp1808
(lp1809
I1350918357
aI86047794
abaS'ardrone_base_link'
p1810
abaF62.0
aI3
aI-6
aI-124
aI170
aI101994
aI439
aF0.04831414669752121
aF113.24241638183594
aF0.0
aF9.565999984741211
aF-0.3330000042915344
aF-4.039000034332275
aI1499
aF93.57691192626953
aF-215.0211639404297
aF-0.0
aF0.04504161328077316
aF0.0023918459191918373
aF0.951149582862854
aI0
a(ta(ta(ta(ta(ta(ta(taF128142608.0
abag16
(g17
g18
Ntp1811
Rp1812
(lp1813
g16
(g22
g18
Ntp1814
Rp1815
(lp1816
I8901
ag16
(g26
g18
Ntp1817
Rp1818
(lp1819
I1350918357
aI146047482
abaS'ardrone_base_link'
p1820
abaF62.0
aI3
aI-8
aI-122
aI164
aI101988
aI439
aF0.04974482208490372
aF113.02900695800781
aF0.0
aF9.13700008392334
aF-0.3269999921321869
aF-3.8980000019073486
aI1522
aF76.09445190429688
aF-329.4966735839844
aF-0.0
aF0.042906757444143295
aF0.0088103162124753
aF0.9492114186286926
aI0
a(ta(ta(ta(ta(ta(ta(taF128207648.0
abag16
(g17
g18
Ntp1821
Rp1822
(lp1823
g16
(g22
g18
Ntp1824
Rp1825
(lp1826
I8902
ag16
(g26
g18
Ntp1827
Rp1828
(lp1829
I1350918357
aI209543404
abaS'ardrone_base_link'
p1830
abaF62.0
aI3
aI-11
aI-129
aI167
aI101991
aI439
aF0.05066714435815811
aF113.1042251586914
aF0.0
aF8.772000312805176
aF-0.2680000066757202
aF-3.744999885559082
aI1518
aF83.53972625732422
aF-404.4871520996094
aF-0.0
aF0.04614309221506119
aF0.021981433033943176
aF0.9487078785896301
aI0
a(ta(ta(ta(ta(ta(ta(taF128272680.0
abag16
(g17
g18
Ntp1831
Rp1832
(lp1833
g16
(g22
g18
Ntp1834
Rp1835
(lp1836
I8903
ag16
(g26
g18
Ntp1837
Rp1838
(lp1839
I1350918357
aI300890313
abaS'ardrone_base_link'
p1840
abaF62.0
aI3
aI-2
aI-128
aI172
aI101988
aI439
aF0.05247442424297333
aF112.34214782714844
aF0.0
aF8.57699966430664
aF-0.16899999976158142
aF-3.6029999256134033
aI1520
aF81.42530822753906
aF-483.6593322753906
aF-0.0
aF0.044517580419778824
aF0.021181166172027588
aF0.9627971649169922
aI0
a(ta(ta(ta(ta(ta(ta(taF128337712.0
abag16
(g17
g18
Ntp1841
Rp1842
(lp1843
g16
(g22
g18
Ntp1844
Rp1845
(lp1846
I8904
ag16
(g26
g18
Ntp1847
Rp1848
(lp1849
I1350918357
aI346101735
abaS'ardrone_base_link'
p1850
abaF62.0
aI3
aI-6
aI-122
aI170
aI101982
aI439
aF0.05456231161952019
aF113.49929809570312
aF0.0
aF8.465999603271484
aF-0.14000000059604645
aF-3.4820001125335693
aI1521
aF41.18460464477539
aF-553.1340942382812
aF-0.0
aF0.04571794718503952
aF0.02503499947488308
aF0.974635660648346
aI0
a(ta(ta(ta(ta(ta(ta(taF128402896.0
abag16
(g17
g18
Ntp1851
Rp1852
(lp1853
g16
(g22
g18
Ntp1854
Rp1855
(lp1856
I8905
ag16
(g26
g18
Ntp1857
Rp1858
(lp1859
I1350918357
aI409164228
abaS'ardrone_base_link'
p1860
abaF62.0
aI3
aI-9
aI-129
aI171
aI102001
aI439
aF0.05547363683581352
aF113.13602447509766
aF0.0
aF8.241999626159668
aF-0.014999999664723873
aF-3.3450000286102295
aI1517
aF36.64178466796875
aF-600.2997436523438
aF-0.0
aF0.04416080191731453
aF0.039119377732276917
aF0.9640703201293945
aI0
a(ta(ta(ta(ta(ta(ta(taF128467808.0
abag16
(g17
g18
Ntp1861
Rp1862
(lp1863
g16
(g22
g18
Ntp1864
Rp1865
(lp1866
I8906
ag16
(g26
g18
Ntp1867
Rp1868
(lp1869
I1350918357
aI489297594
abaS'ardrone_base_link'
p1870
abaF62.0
aI3
aI-6
aI-128
aI170
aI101991
aI439
aF0.056364092975854874
aF111.51277923583984
aF0.0
aF8.17300033569336
aF0.16899999976158142
aF-3.240999937057495
aI1515
aF69.56552124023438
aF-654.3222045898438
aF-0.0
aF0.056011345237493515
aF0.03513730317354202
aF0.9799408912658691
aI0
a(ta(ta(ta(ta(ta(ta(taF128532928.0
abag16
(g17
g18
Ntp1871
Rp1872
(lp1873
g16
(g22
g18
Ntp1874
Rp1875
(lp1876
I8907
ag16
(g26
g18
Ntp1877
Rp1878
(lp1879
I1350918357
aI546036368
abaS'ardrone_base_link'
p1880
abaF62.0
aI3
aI-6
aI-126
aI168
aI101982
aI439
aF0.05710455775260925
aF109.83829498291016
aF0.0
aF8.11299991607666
aF0.2199999988079071
aF-3.125999927520752
aI1523
aF77.2967758178711
aF-717.6765747070312
aF-0.0
aF0.053021594882011414
aF0.03894931450486183
aF0.9484325647354126
aI0
a(ta(ta(ta(ta(ta(ta(taF128597936.0
abag16
(g17
g18
Ntp1881
Rp1882
(lp1883
g16
(g22
g18
Ntp1884
Rp1885
(lp1886
I8908
ag16
(g26
g18
Ntp1887
Rp1888
(lp1889
I1350918357
aI608661577
abaS'ardrone_base_link'
p1890
abaF62.0
aI3
aI-11
aI-127
aI167
aI101998
aI439
aF0.058131784200668335
aF108.47882080078125
aF0.0
aF7.953999996185303
aF0.1550000011920929
aF-3.0799999237060547
aI1521
aF67.63450622558594
aF-755.076171875
aF-0.0
aF0.053575653582811356
aF0.04872871935367584
aF0.9529520273208618
aI0
a(ta(ta(ta(ta(ta(ta(taF128663608.0
abag16
(g17
g18
Ntp1891
Rp1892
(lp1893
g16
(g22
g18
Ntp1894
Rp1895
(lp1896
I8909
ag16
(g26
g18
Ntp1897
Rp1898
(lp1899
I1350918357
aI670216047
abaS'ardrone_base_link'
p1900
abaF62.0
aI3
aI-9
aI-131
aI169
aI101959
aI439
aF0.05936276912689209
aF107.18206024169922
aF0.0
aF7.940000057220459
aF0.18299999833106995
aF-2.9639999866485596
aI1517
aF63.63829040527344
aF-810.4720458984375
aF-0.0
aF0.05017668008804321
aF0.054874252527952194
aF0.9497487545013428
aI0
a(ta(ta(ta(ta(ta(ta(taF128728088.0
abag16
(g17
g18
Ntp1901
Rp1902
(lp1903
g16
(g22
g18
Ntp1904
Rp1905
(lp1906
I8910
ag16
(g26
g18
Ntp1907
Rp1908
(lp1909
I1350918357
aI728764862
abaS'ardrone_base_link'
p1910
abaF62.0
aI3
aI-7
aI-125
aI163
aI102001
aI439
aF0.06011359393596649
aF106.64547729492188
aF0.0
aF8.062999725341797
aF0.1860000044107437
aF-2.8399999141693115
aI1521
aF53.760738372802734
aF-850.3177490234375
aF-0.0
aF0.048565980046987534
aF0.05997594818472862
aF0.9577464461326599
aI0
a(ta(ta(ta(ta(ta(ta(taF128793184.0
abag16
(g17
g18
Ntp1911
Rp1912
(lp1913
g16
(g22
g18
Ntp1914
Rp1915
(lp1916
I8911
ag16
(g26
g18
Ntp1917
Rp1918
(lp1919
I1350918357
aI811775635
abaS'ardrone_base_link'
p1920
abaF62.0
aI3
aI-1
aI-125
aI169
aI101994
aI439
aF0.0614188015460968
aF105.91374969482422
aF0.0
aF8.095000267028809
aF0.14399999380111694
aF-2.7060000896453857
aI1522
aF44.41884231567383
aF-906.655029296875
aF-0.0
aF0.03791059926152229
aF0.06559363752603531
aF0.9226274490356445
aI0
a(ta(ta(ta(ta(ta(ta(taF128858160.0
abag16
(g17
g18
Ntp1921
Rp1922
(lp1923
g16
(g22
g18
Ntp1924
Rp1925
(lp1926
I8912
ag16
(g26
g18
Ntp1927
Rp1928
(lp1929
I1350918357
aI872037045
abaS'ardrone_base_link'
p1930
abaF62.0
aI3
aI-6
aI-124
aI164
aI101991
aI439
aF0.06348478049039841
aF106.549560546875
aF0.0
aF8.095999717712402
aF0.22699999809265137
aF-2.578000068664551
aI1532
aF40.07856369018555
aF-974.769287109375
aF-0.0
aF0.04867302253842354
aF0.07314454019069672
aF0.9593822956085205
aI0
a(ta(ta(ta(ta(ta(ta(taF128923344.0
abag16
(g17
g18
Ntp1931
Rp1932
(lp1933
g16
(g22
g18
Ntp1934
Rp1935
(lp1936
I8913
ag16
(g26
g18
Ntp1937
Rp1938
(lp1939
I1350918357
aI926107131
abaS'ardrone_base_link'
p1940
abaF62.0
aI3
aI-8
aI-128
aI170
aI101982
aI439
aF0.06400692462921143
aF104.04400634765625
aF0.0
aF8.090999603271484
aF0.20399999618530273
aF-2.4690001010894775
aI1529
aF53.70063781738281
aF-1029.004638671875
aF-0.0
aF0.06063079833984375
aF0.07354985922574997
aF0.8843583464622498
aI0
a(ta(ta(ta(ta(ta(ta(taF130085464.0
abag16
(g17
g18
Ntp1941
Rp1942
(lp1943
g16
(g22
g18
Ntp1944
Rp1945
(lp1946
I8914
ag16
(g26
g18
Ntp1947
Rp1948
(lp1949
I1350918357
aI987545078
abaS'ardrone_base_link'
p1950
abaF62.0
aI3
aI-12
aI-124
aI168
aI101969
aI439
aF0.0662405714392662
aF101.60295867919922
aF0.0
aF8.175999641418457
aF0.11400000005960464
aF-2.36299991607666
aI1529
aF80.74230194091797
aF-1095.45703125
aF-0.0
aF0.04232711344957352
aF0.08044801652431488
aF0.9131096005439758
aI0
a(ta(ta(ta(ta(ta(ta(taF130150680.0
abag16
(g17
g18
Ntp1951
Rp1952
(lp1953
g16
(g22
g18
Ntp1954
Rp1955
(lp1956
I8915
ag16
(g26
g18
Ntp1957
Rp1958
(lp1959
I1350918358
aI66033402
abaS'ardrone_base_link'
p1960
abaF62.0
aI3
aI-14
aI-118
aI166
aI101991
aI439
aF0.06848118454217911
aF100.17792510986328
aF0.0
aF8.35200023651123
aF0.10700000077486038
aF-2.2730000019073486
aI1530
aF78.95397186279297
aF-1137.90380859375
aF-0.0
aF0.05393432825803757
aF0.07907069474458694
aF0.9329252243041992
aI0
a(ta(ta(ta(ta(ta(ta(taF130215560.0
abag16
(g17
g18
Ntp1961
Rp1962
(lp1963
g16
(g22
g18
Ntp1964
Rp1965
(lp1966
I8916
ag16
(g26
g18
Ntp1967
Rp1968
(lp1969
I1350918358
aI130557444
abaS'ardrone_base_link'
p1970
abaF62.0
aI3
aI-10
aI-126
aI166
aI101991
aI439
aF0.06991296261548996
aF98.4896011352539
aF0.0
aF8.472999572753906
aF0.14800000190734863
aF-2.177999973297119
aI1528
aF85.68251037597656
aF-1168.294677734375
aF-0.0
aF0.05103025585412979
aF0.08453210443258286
aF0.9336199164390564
aI0
a(ta(ta(ta(ta(ta(ta(taF130280688.0
abag16
(g17
g18
Ntp1971
Rp1972
(lp1973
g16
(g22
g18
Ntp1974
Rp1975
(lp1976
I8917
ag16
(g26
g18
Ntp1977
Rp1978
(lp1979
I1350918358
aI191715216
abaS'ardrone_base_link'
p1980
abaF62.0
aI3
aI-13
aI-125
aI165
aI101982
aI439
aF0.0724964439868927
aF97.22616577148438
aF0.0
aF8.588000297546387
aF0.20800000429153442
aF-2.125999927520752
aI1538
aF80.80831146240234
aF-1235.2713623046875
aF-0.0
aF0.053388070315122604
aF0.08572977036237717
aF0.9447653889656067
aI0
a(ta(ta(ta(ta(ta(ta(taF130345720.0
abag16
(g17
g18
Ntp1981
Rp1982
(lp1983
g16
(g22
g18
Ntp1984
Rp1985
(lp1986
I8918
ag16
(g26
g18
Ntp1987
Rp1988
(lp1989
I1350918358
aI246044597
abaS'ardrone_base_link'
p1990
abaF62.0
aI3
aI-13
aI-123
aI173
aI101991
aI439
aF0.07350018620491028
aF96.55095672607422
aF0.0
aF8.621000289916992
aF0.1509999930858612
aF-2.1070001125335693
aI1534
aF78.47278594970703
aF-1230.0914306640625
aF-0.0
aF0.04322071373462677
aF0.07975941151380539
aF0.9147830009460449
aI0
a(ta(ta(ta(ta(ta(ta(taF130410848.0
abag16
(g17
g18
Ntp1991
Rp1992
(lp1993
g16
(g22
g18
Ntp1994
Rp1995
(lp1996
I8919
ag16
(g26
g18
Ntp1997
Rp1998
(lp1999
I1350918358
aI330259034
abaS'ardrone_base_link'
p2000
abaF62.0
aI3
aI-10
aI-126
aI166
aI101972
aI439
aF0.0738176554441452
aF95.99842834472656
aF0.0
aF8.727999687194824
aF0.1080000028014183
aF-2.0950000286102295
aI1527
aF90.64485931396484
aF-1224.577392578125
aF-0.0
aF0.04795314371585846
aF0.09449629485607147
aF0.9394766092300415
aI0
a(ta(ta(ta(ta(ta(ta(taF130475784.0
abag16
(g17
g18
Ntp2001
Rp2002
(lp2003
g16
(g22
g18
Ntp2004
Rp2005
(lp2006
I8920
ag16
(g26
g18
Ntp2007
Rp2008
(lp2009
I1350918358
aI412246957
abaS'ardrone_base_link'
p2010
abaF62.0
aI3
aI-14
aI-128
aI170
aI101994
aI439
aF0.0764291062951088
aF95.40489959716797
aF0.0
aF8.814000129699707
aF0.1080000028014183
aF-2.0490000247955322
aI1521
aF98.6055679321289
aF-1293.6419677734375
aF-0.0
aF0.0464446134865284
aF0.09065607190132141
aF0.9271073937416077
aI0
a(ta(ta(ta(ta(ta(ta(taF130540968.0
abag16
(g17
g18
Ntp2011
Rp2012
(lp2013
g16
(g22
g18
Ntp2014
Rp2015
(lp2016
I8921
ag16
(g26
g18
Ntp2017
Rp2018
(lp2019
I1350918358
aI446057110
abaS'ardrone_base_link'
p2020
abaF62.0
aI3
aI-15
aI-127
aI169
aI101994
aI439
aF0.07754931598901749
aF96.06802368164062
aF0.0
aF8.842000007629395
aF0.1420000046491623
aF-2.0290000438690186
aI1518
aF82.38826751708984
aF-1321.637939453125
aF-0.0
aF0.02266528643667698
aF0.09772635996341705
aF0.8656189441680908
aI0
a(ta(ta(ta(ta(ta(ta(taF130605880.0
abag16
(g17
g18
Ntp2021
Rp2022
(lp2023
g16
(g22
g18
Ntp2024
Rp2025
(lp2026
I8922
ag16
(g26
g18
Ntp2027
Rp2028
(lp2029
I1350918358
aI511168764
abaS'ardrone_base_link'
p2030
abaF62.0
aI3
aI-13
aI-127
aI165
aI101985
aI439
aF0.08592400699853897
aF97.2409896850586
aF0.0
aF8.805000305175781
aF0.1589999943971634
aF-1.9780000448226929
aI1513
aF76.1322250366211
aF-1529.586669921875
aF-0.0
aF0.044688574969768524
aF0.10438854992389679
aF0.9556964635848999
aI0
a(ta(ta(ta(ta(ta(ta(taF130671008.0
abag16
(g17
g18
Ntp2031
Rp2032
(lp2033
g16
(g22
g18
Ntp2034
Rp2035
(lp2036
I8923
ag16
(g26
g18
Ntp2037
Rp2038
(lp2039
I1350918358
aI586069956
abaS'ardrone_base_link'
p2040
abaF62.0
aI3
aI-13
aI-125
aI169
aI102004
aI439
aF0.09462043642997742
aF97.87406921386719
aF0.0
aF8.847000122070312
aF0.11400000005960464
aF-1.940999984741211
aI1506
aF29.658082962036133
aF-1644.8572998046875
aF-0.0
aF0.040579598397016525
aF0.10274617373943329
aF0.9471881985664368
aI0
a(ta(ta(ta(ta(ta(ta(taF130736008.0
abag16
(g17
g18
Ntp2041
Rp2042
(lp2043
g16
(g22
g18
Ntp2044
Rp2045
(lp2046
I8924
ag16
(g26
g18
Ntp2047
Rp2048
(lp2049
I1350918358
aI648667281
abaS'ardrone_base_link'
p2050
abaF62.0
aI3
aI-11
aI-125
aI163
aI101988
aI439
aF0.1014842763543129
aF98.66854858398438
aF0.0
aF8.970999717712402
aF0.21899999678134918
aF-1.871000051498413
aI1504
aF11.268881797790527
aF-1710.7939453125
aF-0.0
aF0.01371182594448328
aF0.10164503008127213
aF0.9791564345359802
aI0
a(ta(ta(ta(ta(ta(ta(taF130801104.0
abag16
(g17
g18
Ntp2051
Rp2052
(lp2053
g16
(g22
g18
Ntp2054
Rp2055
(lp2056
I8925
ag16
(g26
g18
Ntp2057
Rp2058
(lp2059
I1350918358
aI708850481
abaS'ardrone_base_link'
p2060
abaF62.0
aI3
aI-12
aI-122
aI164
aI102010
aI439
aF0.10570726543664932
aF97.10105895996094
aF0.0
aF9.0600004196167
aF0.3479999899864197
aF-1.7710000276565552
aI1496
aF18.61490821838379
aF-1719.558349609375
aF-0.0
aF0.08696192502975464
aF0.10949838161468506
aF0.8984540700912476
aI0
a(ta(ta(ta(ta(ta(ta(taF130866168.0
abag16
(g17
g18
Ntp2061
Rp2062
(lp2063
g16
(g22
g18
Ntp2064
Rp2065
(lp2066
I8926
ag16
(g26
g18
Ntp2067
Rp2068
(lp2069
I1350918358
aI769880945
abaS'ardrone_base_link'
p2070
abaF62.0
aI3
aI-16
aI-124
aI170
aI101988
aI439
aF0.10858950763940811
aF95.767822265625
aF0.0
aF9.069000244140625
aF0.3799999952316284
aF-1.6649999618530273
aI1492
aF27.211328506469727
aF-1705.161376953125
aF-0.0
aF0.05238994210958481
aF0.11447075009346008
aF0.9554834961891174
aI0
a(ta(ta(ta(ta(ta(ta(taF130931168.0
abag16
(g17
g18
Ntp2071
Rp2072
(lp2073
g16
(g22
g18
Ntp2074
Rp2075
(lp2076
I8927
ag16
(g26
g18
Ntp2077
Rp2078
(lp2079
I1350918358
aI846032473
abaS'ardrone_base_link'
p2080
abaF62.0
aI3
aI-12
aI-128
aI172
aI101985
aI439
aF0.11040770262479782
aF95.20463562011719
aF0.0
aF9.01200008392334
aF0.3840000033378601
aF-1.5740000009536743
aI1481
aF31.412057876586914
aF-1684.4554443359375
aF-0.0
aF0.05604536831378937
aF0.12196372449398041
aF0.9519539475440979
aI0
a(ta(ta(ta(ta(ta(ta(taF130996200.0
abag16
(g17
g18
Ntp2081
Rp2082
(lp2083
g16
(g22
g18
Ntp2084
Rp2085
(lp2086
I8928
ag16
(g26
g18
Ntp2087
Rp2088
(lp2089
I1350918358
aI908756826
abaS'ardrone_base_link'
p2090
abaF62.0
aI3
aI-13
aI-123
aI161
aI101985
aI439
aF0.11176817119121552
aF94.39275360107422
aF0.0
aF9.03600025177002
aF0.30000001192092896
aF-1.4800000190734863
aI1479
aF38.063995361328125
aF-1693.319580078125
aF-0.0
aF0.05318848416209221
aF0.11795423179864883
aF0.9629563689231873
aI0
a(ta(ta(ta(ta(ta(ta(taF132158512.0
abag16
(g17
g18
Ntp2091
Rp2092
(lp2093
g16
(g22
g18
Ntp2094
Rp2095
(lp2096
I8929
ag16
(g26
g18
Ntp2097
Rp2098
(lp2099
I1350918358
aI968878851
abaS'ardrone_base_link'
p2100
abaF62.0
aI3
aI-8
aI-128
aI170
aI101998
aI439
aF0.111508809030056
aF94.3576431274414
aF0.0
aF8.954000473022461
aF0.11599999666213989
aF-1.4299999475479126
aI1476
aF22.331642150878906
aF-1657.198974609375
aF-0.0
aF0.054718267172575
aF0.12189169228076935
aF0.9625614881515503
aI0
a(ta(ta(ta(ta(ta(ta(taF132223480.0
abag16
(g17
g18
Ntp2101
Rp2102
(lp2103
g16
(g22
g18
Ntp2104
Rp2105
(lp2106
I8930
ag16
(g26
g18
Ntp2107
Rp2108
(lp2109
I1350918359
aI26026341
abaS'ardrone_base_link'
p2110
abaF62.0
aI3
aI-9
aI-119
aI165
aI101991
aI439
aF0.11078502237796783
aF94.16556549072266
aF0.0
aF9.005999565124512
aF0.054999999701976776
aF-1.340999960899353
aI1481
aF17.662015914916992
aF-1633.4107666015625
aF-0.0
aF0.04955093935132027
aF0.13426686823368073
aF0.9532768130302429
aI0
a(ta(ta(ta(ta(ta(ta(taF132288576.0
abasS'vz'
p2111
(lp2112
sS'al'
p2113
(lp2114
I700
aI704
aI709
aI717
aI722
aI727
aI733
aI735
aI739
aI740
aI738
aI737
aI736
aI736
aI737
aI737
aI738
aI740
aI739
aI737
aI737
aI737
aI737
aI737
aI736
aI734
aI734
aI732
aI731
aI732
aI730
aI728
aI725
aI726
aI730
aI744
aI767
aI793
aI826
aI866
aI907
aI953
aI1000
aI1043
aI1089
aI1133
aI1176
aI1217
aI1252
aI1287
aI1318
aI1349
aI1376
aI1400
aI1425
aI1444
aI1461
aI1475
aI1485
aI1492
aI1497
aI1501
aI1503
aI1502
aI1504
aI1501
aI1498
aI1491
aI1487
aI1489
aI1485
aI1480
aI1480
aI1476
aI1473
aI1475
aI1473
aI1470
aI1465
aI1464
aI1463
aI1462
aI1462
aI1464
aI1465
aI1467
aI1469
aI1472
aI1474
aI1474
aI1473
aI1477
aI1476
aI1475
aI1477
aI1481
aI1481
aI1481
aI1485
aI1491
aI1504
aI1504
aI1495
aI1490
aI1482
aI1481
aI1487
aI1485
aI1485
aI1486
aI1486
aI1482
aI1487
aI1483
aI1481
aI1486
aI1490
aI1486
aI1483
aI1476
aI1474
aI1476
aI1477
aI1478
aI1478
aI1482
aI1482
aI1481
aI1483
aI1481
aI1478
aI1476
aI1475
aI1472
aI1474
aI1479
aI1486
aI1504
aI1502
aI1509
aI1518
aI1517
aI1511
aI1504
aI1504
aI1502
aI1499
aI1511
aI1507
aI1512
aI1513
aI1511
aI1503
aI1496
aI1495
aI1494
aI1492
aI1493
aI1495
aI1497
aI1509
aI1504
aI1496
aI1489
aI1490
aI1485
aI1488
aI1487
aI1492
aI1499
aI1500
aI1499
aI1502
aI1498
aI1497
aI1500
aI1500
aI1497
aI1499
aI1522
aI1518
aI1520
aI1521
aI1517
aI1515
aI1523
aI1521
aI1517
aI1521
aI1522
aI1532
aI1529
aI1529
aI1530
aI1528
aI1538
aI1534
aI1527
aI1521
aI1518
aI1513
aI1506
aI1504
aI1496
aI1492
aI1481
aI1479
aI1476
aI1481
asa(dp2115
S'tw'
p2116
(lp2117
g16
(cgeometry_msgs.msg._Twist
Twist
p2118
g18
Ntp2119
Rp2120
(lp2121
g16
(cgeometry_msgs.msg._Vector3
Vector3
p2122
g18
Ntp2123
Rp2124
(lp2125
F0.0
aF0.0
aF0.0
abag16
(g2122
g18
Ntp2126
Rp2127
(lp2128
F0.0
aF0.0
aF0.0
ababag2120
ag2120
ag2120
ag2120
ag2120
ag2120
ag2120
ag2120
ag2120
ag2120
ag2120
ag2120
ag2120
ag2120
ag2120
ag2120
ag2120
ag2120
ag2120
ag2120
ag2120
ag2120
ag2120
ag2120
ag2120
ag2120
ag2120
ag2120
ag2120
ag2120
ag2120
ag2120
ag2120
ag2120
ag2120
ag2120
ag2120
ag2120
ag2120
ag2120
ag2120
ag2120
ag2120
ag2120
ag2120
ag2120
ag2120
ag2120
ag2120
ag2120
ag2120
ag2120
ag2120
ag2120
ag2120
ag2120
ag2120
ag2120
ag2120
ag2120
ag2120
ag2120
ag2120
ag2120
ag2120
ag2120
ag2120
ag2120
ag2120
ag2120
ag2120
ag2120
ag2120
ag2120
ag2120
ag2120
ag2120
ag2120
ag2120
ag2120
ag2120
ag2120
ag2120
ag2120
ag2120
ag2120
ag2120
ag2120
ag2120
ag2120
ag2120
ag2120
ag2120
ag2120
ag2120
ag2120
ag2120
ag2120
ag2120
ag2120
ag2120
ag2120
ag2120
ag2120
ag2120
ag2120
ag2120
ag2120
ag2120
ag2120
ag2120
ag2120
ag2120
ag2120
ag2120
ag2120
ag2120
ag2120
ag2120
ag2120
ag2120
ag2120
ag2120
ag2120
ag2120
ag2120
ag2120
ag2120
ag2120
ag2120
ag2120
ag2120
ag2120
ag2120
ag2120
ag2120
ag2120
ag2120
ag2120
ag2120
ag2120
ag2120
ag2120
ag2120
ag2120
ag2120
ag2120
ag2120
ag2120
ag2120
ag2120
ag2120
ag2120
ag2120
ag2120
ag2120
ag2120
ag2120
ag2120
ag2120
ag2120
ag2120
ag2120
ag2120
ag2120
ag2120
ag2120
ag2120
ag2120
ag2120
ag2120
asg4
(lp2129
F8.06755781173706
aF8.134224891662598
aF8.200878858566284
aF8.267476797103882
aF8.333956956863403
aF8.400919914245605
aF8.467553853988647
aF8.534210920333862
aF8.600727796554565
aF8.667490005493164
aF8.733964920043945
aF8.800859928131104
aF8.867615938186646
aF8.934135913848877
aF9.00058889389038
aF9.067362785339355
aF9.13399600982666
aF9.200768947601318
aF9.267217874526978
aF9.334250926971436
aF9.400643825531006
aF9.467463970184326
aF9.53431487083435
aF9.60206389427185
aF9.667475938796997
aF9.734308958053589
aF9.800732851028442
aF9.86736798286438
aF9.934179782867432
aF10.000861883163452
aF10.067561864852905
aF10.134217977523804
aF10.200722932815552
aF10.267246961593628
aF10.334075927734375
aF10.401011943817139
aF10.467399835586548
aF10.53415298461914
aF10.600589990615845
aF10.667295932769775
aF10.734367847442627
aF10.800781011581421
aF10.867321014404297
aF10.934178829193115
aF11.000940799713135
aF11.067600965499878
aF11.134065866470337
aF11.20058298110962
aF11.267261981964111
aF11.334239959716797
aF11.4009428024292
aF11.467439889907837
aF11.53396487236023
aF11.600894927978516
aF11.667535781860352
aF11.734007835388184
aF11.800561904907227
aF11.867496013641357
aF11.934281826019287
aF12.000906944274902
aF12.067319869995117
aF12.13393783569336
aF12.20091199874878
aF12.267638921737671
aF12.334043979644775
aF12.40059494972229
aF12.467832803726196
aF12.534063816070557
aF12.601090908050537
aF12.667443990707397
aF12.733925819396973
aF12.801788806915283
aF12.867628812789917
aF12.934242010116577
aF13.000881910324097
aF13.06742787361145
aF13.134183883666992
aF13.200875997543335
aF13.267382860183716
aF13.33401083946228
aF13.400644779205322
aF13.467415809631348
aF13.534160852432251
aF13.600744009017944
aF13.667248964309692
aF13.734308958053589
aF13.80095887184143
aF13.867583990097046
aF13.934345006942749
aF14.000662803649902
aF14.067608833312988
aF14.13420581817627
aF14.201237916946411
aF14.267295837402344
aF14.334303855895996
aF14.402413845062256
aF14.467501878738403
aF14.534191846847534
aF14.60085678100586
aF14.66739797592163
aF14.734177827835083
aF14.800705909729004
aF14.867286920547485
aF14.934000015258789
aF15.000684976577759
aF15.067267894744873
aF15.134032964706421
aF15.200724840164185
aF15.267284870147705
aF15.334228992462158
aF15.400759935379028
aF15.467297792434692
aF15.533972978591919
aF15.600727796554565
aF15.667614936828613
aF15.734510898590088
aF15.800967931747437
aF15.867854833602905
aF15.934222936630249
aF16.000974893569946
aF16.06750178337097
aF16.13408088684082
aF16.200575828552246
aF16.2674458026886
aF16.334070920944214
aF16.400662899017334
aF16.46733593940735
aF16.53401780128479
aF16.60090398788452
aF16.667609930038452
aF16.734118938446045
aF16.800627946853638
aF16.867538928985596
aF16.9360249042511
aF17.00072479248047
aF17.06759285926819
aF17.13394784927368
aF17.20090889930725
aF17.267619848251343
aF17.336545944213867
aF17.400629997253418
aF17.467495918273926
aF17.534101009368896
aF17.60064697265625
aF17.667499780654907
aF17.734050989151
aF17.800734996795654
aF17.867347955703735
aF17.93404984474182
aF18.000662803649902
aF18.067281007766724
aF18.134081840515137
aF18.200790882110596
aF18.267477989196777
aF18.33414888381958
aF18.400592803955078
aF18.467562913894653
aF18.534129858016968
aF18.600751876831055
aF18.66730284690857
aF18.73394799232483
aF18.80095100402832
aF18.867625951766968
aF18.934095859527588
aF19.000622987747192
aF19.068228006362915
aF19.134384870529175
aF19.20084500312805
aF19.26725482940674
aF19.33390498161316
aF19.400633811950684
aF19.467365980148315
asa.