(lp0
(dp1
S'ps'
p2
(lp3
F21.61400032043457
aF21.615999221801758
aF21.593000411987305
aF21.615999221801758
aF21.60300064086914
aF21.63599967956543
aF21.60300064086914
aF21.566999435424805
aF21.535999298095703
aF21.514999389648438
aF21.52199935913086
aF21.534000396728516
aF21.55299949645996
aF21.552000045776367
aF21.55900001525879
aF21.54800033569336
aF21.542999267578125
aF21.535999298095703
aF21.530000686645508
aF21.51099967956543
aF21.48699951171875
aF21.481000900268555
aF21.469999313354492
aF21.500999450683594
aF21.496000289916992
aF21.534000396728516
aF21.506000518798828
aF21.53700065612793
aF21.530000686645508
aF21.55299949645996
aF21.55500030517578
aF21.569000244140625
aF21.551000595092773
aF20.8799991607666
aF20.034000396728516
aF19.142000198364258
aF18.216999053955078
aF17.31100082397461
aF16.416000366210938
aF15.532999992370605
aF14.704000473022461
aF13.892000198364258
aF13.102999687194824
aF12.366000175476074
aF11.651000022888184
aF10.98900032043457
aF10.324000358581543
aF9.732000350952148
aF9.161999702453613
aF8.62600040435791
aF8.105999946594238
aF7.614999771118164
aF7.126999855041504
aF6.639999866485596
aF6.184000015258789
aF5.775000095367432
aF5.36299991607666
aF5.010000228881836
aF4.635000228881836
aF4.283999919891357
aF3.9149999618530273
aF3.578000068664551
aF3.246999979019165
aF2.9230000972747803
aF2.615999937057495
aF2.309999942779541
aF2.01200008392334
aF1.746999979019165
aF1.4989999532699585
aF1.2510000467300415
aF1.0470000505447388
aF0.8259999752044678
aF0.6370000243186951
aF0.4429999887943268
aF0.21799999475479126
aF0.00800000037997961
aF-0.19900000095367432
aF-0.414000004529953
aF-0.6480000019073486
aF-0.8320000171661377
aF-1.034999966621399
aF-1.2109999656677246
aF-1.3919999599456787
aF-1.5709999799728394
aF-1.7139999866485596
aF-1.8799999952316284
aF-2.0160000324249268
aF-2.1419999599456787
aF-2.255000114440918
aF-2.4000000953674316
aF-2.496000051498413
aF-2.615000009536743
aF-2.686000108718872
aF-2.818000078201294
aF-2.888000011444092
aF-2.9820001125335693
aF-3.0810000896453857
aF-3.2079999446868896
aF-3.303999900817871
aF-3.4170000553131104
aF-3.506999969482422
aF-3.6419999599456787
aF-3.7290000915527344
aF-3.8369998931884766
aF-3.927999973297119
aF-4.0329999923706055
aF-4.0929999351501465
aF-4.15500020980835
aF-4.196000099182129
aF-4.228000164031982
aF-4.263999938964844
aF-4.313000202178955
aF-4.354000091552734
aF-4.392000198364258
aF-4.440000057220459
aF-4.51800012588501
aF-4.567999839782715
aF-4.631999969482422
aF-4.645999908447266
aF-4.631999969482422
aF-4.616000175476074
aF-4.618000030517578
aF-4.598999977111816
aF-4.560999870300293
aF-4.486000061035156
aF-4.394000053405762
aF-4.2779998779296875
aF-4.10699987411499
aF-3.9260001182556152
aF-3.7790000438690186
aF-3.6050000190734863
asS'tm'
p4
(lp5
F6.058581113815308
aF6.138973951339722
aF6.198620080947876
aF6.25898003578186
aF6.31765604019165
aF6.3990349769592285
aF6.458489179611206
aF6.5176520347595215
aF6.598482131958008
aF6.658565044403076
aF6.717653036117554
aF6.780004978179932
aF6.837612152099609
aF6.91764497756958
aF6.978563070297241
aF7.038486003875732
aF7.097609996795654
aF7.178584098815918
aF7.23847508430481
aF7.297619104385376
aF7.379781007766724
aF7.437636137008667
aF7.497621059417725
aF7.559229135513306
aF7.618551015853882
aF7.698462009429932
aF7.75848913192749
aF7.818604946136475
aF7.897614002227783
aF7.958546161651611
aF8.018522024154663
aF8.079081058502197
aF8.158427000045776
aF8.218592166900635
aF8.278017044067383
aF8.339679956436157
aF8.420042037963867
aF8.47898817062378
aF8.539391994476318
aF8.59975004196167
aF8.658365964889526
aF8.73904800415039
aF8.80140209197998
aF8.859025001525879
aF8.938740968704224
aF8.998183012008667
aF9.058892011642456
aF9.118831157684326
aF9.19819712638855
aF9.258600950241089
aF9.319992065429688
aF9.379843950271606
aF9.45882797241211
aF9.520885944366455
aF9.57951807975769
aF9.638005018234253
aF9.718811988830566
aF9.778924942016602
aF9.838942050933838
aF9.898947954177856
aF9.978137969970703
aF10.038931131362915
aF10.098806142807007
aF10.157958984375
aF10.2379629611969
aF10.298911094665527
aF10.35841417312622
aF10.418115139007568
aF10.499129056930542
aF10.55807113647461
aF10.618842124938965
aF10.6982741355896
aF10.75907015800476
aF10.81979513168335
aF10.877990961074829
aF10.938436031341553
aF11.019654989242554
aF11.079035997390747
aF11.138803958892822
aF11.199093103408813
aF11.277976989746094
aF11.338809967041016
aF11.397974014282227
aF11.458980083465576
aF11.538036108016968
aF11.599867105484009
aF11.661822080612183
aF11.738819122314453
aF11.799208164215088
aF11.859163045883179
aF11.919756174087524
aF11.97799801826477
aF12.058675050735474
aF12.118029117584229
aF12.1804039478302
aF12.25817608833313
aF12.31897497177124
aF12.378031015396118
aF12.440432071685791
aF12.518829107284546
aF12.578997135162354
aF12.637959957122803
aF12.698598146438599
aF12.77878999710083
aF12.839879989624023
aF12.899531126022339
aF12.959125995635986
aF13.03885817527771
aF13.098960161209106
aF13.159171104431152
aF13.218903064727783
aF13.299715995788574
aF13.358100175857544
aF13.418147087097168
aF13.478904962539673
aF13.558226108551025
aF13.618031978607178
aF13.679120063781738
aF13.739670038223267
aF13.818959951400757
aF13.878054141998291
aF13.938601970672607
aF14.018903017044067
aF14.078960180282593
aF14.138998985290527
aF14.19877314567566
aF14.258744955062866
aF14.338088989257812
aF14.397976160049438
aF14.458191156387329
aF14.518555164337158
asS'th'
p6
(lp7
F0.33899998664855957
aF0.47200000286102295
aF0.6200000047683716
aF0.6850000023841858
aF0.7720000147819519
aF0.703000009059906
aF0.6840000152587891
aF0.6079999804496765
aF0.6679999828338623
aF0.6859999895095825
aF0.7419999837875366
aF0.718999981880188
aF0.6349999904632568
aF0.49000000953674316
aF0.367000013589859
aF0.36399999260902405
aF0.3610000014305115
aF0.38499999046325684
aF0.32600000500679016
aF0.3440000116825104
aF0.32600000500679016
aF0.40400001406669617
aF0.49799999594688416
aF0.5239999890327454
aF0.4580000042915344
aF0.382999986410141
aF0.3529999852180481
aF0.3400000035762787
aF0.40299999713897705
aF0.5059999823570251
aF0.6069999933242798
aF0.6510000228881836
aF0.6140000224113464
aF0.3269999921321869
aF-0.02800000086426735
aF-0.3199999928474426
aF-0.4869999885559082
aF-0.5410000085830688
aF-0.6019999980926514
aF-0.5450000166893005
aF-0.36899998784065247
aF-0.27900001406669617
aF-0.1469999998807907
aF-0.09300000220537186
aF-0.1289999932050705
aF-0.029999999329447746
aF-0.014000000432133675
aF0.125
aF0.16500000655651093
aF0.29499998688697815
aF0.34299999475479126
aF0.3529999852180481
aF0.3529999852180481
aF0.3230000138282776
aF0.21699999272823334
aF0.164000004529953
aF0.125
aF0.18299999833106995
aF0.15800000727176666
aF0.18400000035762787
aF0.1599999964237213
aF0.15199999511241913
aF0.13500000536441803
aF0.08399999886751175
aF0.05000000074505806
aF-0.04899999871850014
aF-0.0989999994635582
aF-0.09700000286102295
aF-0.09300000220537186
aF-0.15199999511241913
aF-0.1809999942779541
aF-0.12700000405311584
aF-0.07999999821186066
aF0.032999999821186066
aF0.04100000113248825
aF0.15800000727176666
aF0.13899999856948853
aF0.17599999904632568
aF0.17399999499320984
aF0.20499999821186066
aF0.2199999988079071
aF0.24500000476837158
aF0.23199999332427979
aF0.23800000548362732
aF0.22599999606609344
aF0.2590000033378601
aF0.31299999356269836
aF0.4230000078678131
aF0.4869999885559082
aF0.5090000033378601
aF0.5059999823570251
aF0.5130000114440918
aF0.5270000100135803
aF0.5059999823570251
aF0.46700000762939453
aF0.40299999713897705
aF0.3610000014305115
aF0.3100000023841858
aF0.23999999463558197
aF0.24199999868869781
aF0.18400000035762787
aF0.164000004529953
aF0.20999999344348907
aF0.16300000250339508
aF0.03700000047683716
aF-0.1550000011920929
aF-0.18400000035762787
aF-0.22599999606609344
aF-0.22300000488758087
aF0.2290000021457672
aF1.4880000352859497
aF2.9110000133514404
aF4.271999835968018
aF5.182000160217285
aF5.785999774932861
aF5.958000183105469
aF6.047999858856201
aF5.997000217437744
aF5.870999813079834
aF5.685999870300293
aF5.521999835968018
aF5.21999979019165
aF4.9679999351501465
aF4.6579999923706055
aF4.48199987411499
aF4.388999938964844
aF4.328000068664551
aF4.4019999504089355
aF4.367000102996826
aF4.248000144958496
aF4.216000080108643
asS'vx'
p8
(lp9
F-0.5436916351318359
aF0.054503023624420166
aF-5.2167558670043945
aF-5.706029891967773
aF2.6528279781341553
aF2.046682834625244
aF2.522710084915161
aF-1.8823246955871582
aF5.153107166290283
aF0.29349982738494873
aF4.790695667266846
aF12.352161407470703
aF18.653505325317383
aF18.856508255004883
aF13.953596115112305
aF14.844277381896973
aF15.556008338928223
aF12.163983345031738
aF10.264267921447754
aF11.332686424255371
aF3.616006851196289
aF2.055865526199341
aF6.436459064483643
aF14.024120330810547
aF12.925375938415527
aF16.03944206237793
aF12.925376892089844
aF12.145379066467285
aF9.365734100341797
aF7.645106792449951
aF7.994811058044434
aF13.365684509277344
aF14.782022476196289
aF19.119131088256836
aF10.371017456054688
aF1.2378406524658203
aF-18.93988800048828
aF-31.8720703125
aF-39.99165344238281
aF-58.819793701171875
aF-53.267784118652344
aF-54.031700134277344
aF-51.367984771728516
aF-43.23373794555664
aF-46.72759246826172
aF-41.11448669433594
aF-53.948509216308594
aF-39.913089752197266
aF-43.586669921875
aF-31.355606079101562
aF-36.53954315185547
aF-27.875408172607422
aF-27.507511138916016
aF-21.77893829345703
aF-27.72726058959961
aF-22.45313835144043
aF-30.495206832885742
aF-27.822174072265625
aF-31.027587890625
aF-28.552528381347656
aF-28.91986846923828
aF-38.0150260925293
aF-32.721309661865234
aF-32.09659194946289
aF-32.934715270996094
aF-23.39362335205078
aF-32.703250885009766
aF-29.292190551757812
aF-40.0179443359375
aF-49.827388763427734
aF-56.915985107421875
aF-63.34107971191406
aF-54.20359802246094
aF-47.67937088012695
aF-54.15292739868164
aF-49.664527893066406
aF-57.56664276123047
aF-52.99284362792969
aF-55.982154846191406
aF-49.365684509277344
aF-45.789058685302734
aF-44.25157165527344
aF-41.51365661621094
aF-41.208736419677734
aF-36.48697280883789
aF-41.950992584228516
aF-28.35826301574707
aF-28.86620330810547
aF-22.51244354248047
aF-19.86556053161621
aF-1.64311945438385
aF-15.600485801696777
aF-0.4477960765361786
aF-16.564193725585938
aF6.79864501953125
aF-3.9843969345092773
aF-6.7669267654418945
aF-6.872292995452881
aF-4.804140090942383
aF-9.806918144226074
aF-7.10975980758667
aF-10.058902740478516
aF-8.395859718322754
aF-4.799001216888428
aF4.120291709899902
aF-0.9394007921218872
aF-1.142592430114746
aF-11.03278923034668
aF-14.345869064331055
aF-31.456079483032227
aF-14.54931926727295
aF-9.243739128112793
aF42.51856231689453
aF78.13838195800781
aF133.40696716308594
aF168.9554443359375
aF247.94091796875
aF309.0248718261719
aF362.6512451171875
aF403.6703796386719
aF444.95361328125
aF488.39447021484375
aF533.427490234375
aF560.9613037109375
aF598.0048217773438
aF586.9031982421875
aF602.9677734375
aF625.329345703125
aF625.8209838867188
aF658.0671997070312
aF701.9862060546875
asS'vy'
p10
(lp11
F-21.322362899780273
aF-34.48818588256836
aF-42.67245864868164
aF-41.53239440917969
aF-41.102996826171875
aF-30.484176635742188
aF-22.799192428588867
aF-14.297927856445312
aF-7.701144218444824
aF-0.4380466341972351
aF2.92897891998291
aF4.543947219848633
aF8.689543724060059
aF8.003576278686523
aF13.987455368041992
aF10.16547679901123
aF6.874149322509766
aF4.207472801208496
aF-1.7638081312179565
aF-0.2941875755786896
aF1.730226993560791
aF4.986877918243408
aF2.740525245666504
aF0.08736182749271393
aF-2.1328790187835693
aF2.075850486755371
aF2.397810935974121
aF2.748762607574463
aF5.818222999572754
aF7.576622486114502
aF6.068343162536621
aF8.845410346984863
aF5.085697650909424
aF26.000633239746094
aF17.64613914489746
aF0.017615675926208496
aF-20.29856300354004
aF-37.02437973022461
aF-57.587425231933594
aF-70.72533416748047
aF-82.45933532714844
aF-96.98372650146484
aF-106.05572509765625
aF-110.79680633544922
aF-110.96123504638672
aF-110.33123016357422
aF-112.0354232788086
aF-106.71729278564453
aF-105.27481842041016
aF-98.79023742675781
aF-90.74622344970703
aF-83.4426498413086
aF-73.16446685791016
aF-59.87699508666992
aF-58.2787971496582
aF-44.900115966796875
aF-43.957916259765625
aF-36.95665740966797
aF-40.24848937988281
aF-43.314491271972656
aF-48.210655212402344
aF-48.55143356323242
aF-53.626075744628906
aF-54.89591979980469
aF-55.56025314331055
aF-62.28541564941406
aF-62.01887130737305
aF-69.15479278564453
aF-67.67321014404297
aF-68.74394226074219
aF-66.49644470214844
aF-68.7451171875
aF-72.80438232421875
aF-74.07563781738281
aF-76.36444854736328
aF-73.99500274658203
aF-78.55817413330078
aF-82.14456176757812
aF-85.1239013671875
aF-90.19343566894531
aF-95.0900650024414
aF-89.31989288330078
aF-91.99353790283203
aF-90.89769744873047
aF-99.6694107055664
aF-103.09878540039062
aF-102.92008209228516
aF-103.8666763305664
aF-107.47752380371094
aF-108.4638671875
aF-115.440185546875
aF-121.98101806640625
aF-126.4834213256836
aF-128.07846069335938
aF-131.7082977294922
aF-139.02552795410156
aF-144.4037322998047
aF-146.44915771484375
aF-143.50042724609375
aF-147.59039306640625
aF-147.65440368652344
aF-153.85494995117188
aF-157.86004638671875
aF-158.71743774414062
aF-164.10958862304688
aF-162.63414001464844
aF-159.50564575195312
aF-155.81497192382812
aF-148.9651336669922
aF-153.2295684814453
aF-156.59811401367188
aF-158.04379272460938
aF-148.54721069335938
aF-137.4730224609375
aF-125.6417007446289
aF-114.64221954345703
aF-101.14757537841797
aF-88.64707946777344
aF-72.0001220703125
aF-65.46183776855469
aF-54.52216339111328
aF-44.58333206176758
aF-34.502315521240234
aF-27.706153869628906
aF-18.45436668395996
aF-5.893420219421387
aF4.017459869384766
aF2.2039756774902344
aF3.72892427444458
aF9.15287971496582
aF11.462851524353027
asS'ph'
p12
(lp13
F0.5479999780654907
aF0.21899999678134918
aF-0.04800000041723251
aF-0.22699999809265137
aF-0.33000001311302185
aF-0.39100000262260437
aF-0.3630000054836273
aF-0.23499999940395355
aF-0.09799999743700027
aF0.02800000086426735
aF0.12300000339746475
aF0.24400000274181366
aF0.27300000190734863
aF0.29499998688697815
aF0.3240000009536743
aF0.367000013589859
aF0.42500001192092896
aF0.48500001430511475
aF0.39800000190734863
aF0.2639999985694885
aF0.23100000619888306
aF0.2290000021457672
aF0.27900001406669617
aF0.29499998688697815
aF0.3160000145435333
aF0.26899999380111694
aF0.21699999272823334
aF0.18199999630451202
aF0.1469999998807907
aF0.1459999978542328
aF0.20000000298023224
aF0.17100000381469727
aF0.09200000017881393
aF0.1679999977350235
aF0.3580000102519989
aF0.5270000100135803
aF0.5600000023841858
aF0.5
aF0.4300000071525574
aF0.36399999260902405
aF0.28999999165534973
aF0.28200000524520874
aF0.2240000069141388
aF0.1940000057220459
aF0.1679999977350235
aF0.1979999989271164
aF0.24500000476837158
aF0.25200000405311584
aF0.18700000643730164
aF0.0689999982714653
aF-0.024000000208616257
aF-0.06300000101327896
aF-0.06599999964237213
aF-0.06300000101327896
aF-0.06700000166893005
aF-0.007000000216066837
aF0.0989999994635582
aF0.18000000715255737
aF0.28200000524520874
aF0.3330000042915344
aF0.335999995470047
aF0.3190000057220459
aF0.28999999165534973
aF0.2809999883174896
aF0.2939999997615814
aF0.24699999392032623
aF0.15800000727176666
aF0.0860000029206276
aF0.01899999938905239
aF0.029999999329447746
aF0.024000000208616257
aF0.01600000075995922
aF0.026000000536441803
aF0.04899999871850014
aF0.041999999433755875
aF0.06499999761581421
aF0.11999999731779099
aF0.164000004529953
aF0.19200000166893005
aF0.16500000655651093
aF0.13300000131130219
aF0.13099999725818634
aF0.18400000035762787
aF0.20600000023841858
aF0.21799999475479126
aF0.19300000369548798
aF0.15000000596046448
aF0.210999995470047
aF0.3070000112056732
aF0.4129999876022339
aF0.4339999854564667
aF0.39899998903274536
aF0.45899999141693115
aF0.48100000619888306
aF0.5019999742507935
aF0.47699999809265137
aF0.4090000092983246
aF0.328000009059906
aF0.28200000524520874
aF0.2809999883174896
aF0.2919999957084656
aF0.2879999876022339
aF0.28700000047683716
aF0.3070000112056732
aF0.13199999928474426
aF-0.04800000041723251
aF-0.12300000339746475
aF-0.14000000059604645
aF-0.1599999964237213
aF-0.2199999988079071
aF-0.2720000147819519
aF-0.23199999332427979
aF-0.21699999272823334
aF-0.29100000858306885
aF-0.36800000071525574
aF-0.4519999921321869
aF-0.49399998784065247
aF-0.42899999022483826
aF-0.32600000500679016
aF-0.2160000056028366
aF-0.22100000083446503
aF-0.2750000059604645
aF-0.4390000104904175
aF-0.5519999861717224
aF-0.6110000014305115
aF-0.574999988079071
aF-0.4569999873638153
aF-0.35899999737739563
aF-0.3199999928474426
aF-0.3240000009536743
aF-0.34299999475479126
asS'nd'
p14
(lp15
ccopy_reg
_reconstructor
p16
(cdynamics.msg._Navdata
Navdata
p17
c__builtin__
object
p18
Ntp19
Rp20
(lp21
g16
(cstd_msgs.msg._Header
Header
p22
g18
Ntp23
Rp24
(lp25
I85291
ag16
(cgenpy.rostime
Time
p26
g18
Ntp27
Rp28
(lp29
I1351133738
aI682331720
abaS'ardrone_base_link'
p30
abaF41.0
aI6
aI-9
aI-157
aI177
aI101546
aI511
aF0.02119898796081543
aF175.32708740234375
aF0.0
aF0.5479999780654907
aF0.33899998664855957
aF21.61400032043457
aI712
aF-0.5436916351318359
aF-21.322362899780273
aF-0.0
aF0.05799485370516777
aF-0.004121787380427122
aF1.0234227180480957
aI0
a(ta(ta(ta(ta(ta(ta(taF1157878144.0
abag16
(g17
g18
Ntp31
Rp32
(lp33
g16
(g22
g18
Ntp34
Rp35
(lp36
I85292
ag16
(g26
g18
Ntp37
Rp38
(lp39
I1351133738
aI762331428
abaS'ardrone_base_link'
p40
abaF41.0
aI6
aI-10
aI-152
aI176
aI101526
aI511
aF0.021418632939457893
aF175.8847198486328
aF0.0
aF0.21899999678134918
aF0.47200000286102295
aF21.615999221801758
aI707
aF0.054503023624420166
aF-34.48818588256836
aF-0.0
aF0.04577808082103729
aF0.004052015487104654
aF1.0107957124710083
aI0
a(ta(ta(ta(ta(ta(ta(taF1157943040.0
abag16
(g17
g18
Ntp41
Rp42
(lp43
g16
(g22
g18
Ntp44
Rp45
(lp46
I85293
ag16
(g26
g18
Ntp47
Rp48
(lp49
I1351133738
aI822324569
abaS'ardrone_base_link'
p50
abaF41.0
aI6
aI-12
aI-154
aI178
aI101552
aI511
aF0.022329263389110565
aF175.2881317138672
aF0.0
aF-0.04800000041723251
aF0.6200000047683716
aF21.593000411987305
aI707
aF-5.2167558670043945
aF-42.67245864868164
aF-0.0
aF0.050442688167095184
aF-0.0010707846377044916
aF0.9723992347717285
aI0
a(ta(ta(ta(ta(ta(ta(taF1158008064.0
abag16
(g17
g18
Ntp51
Rp52
(lp53
g16
(g22
g18
Ntp54
Rp55
(lp56
I85294
ag16
(g26
g18
Ntp57
Rp58
(lp59
I1351133738
aI882480477
abaS'ardrone_base_link'
p60
abaF41.0
aI6
aI-11
aI-159
aI177
aI101552
aI511
aF0.023255489766597748
aF175.41574096679688
aF0.0
aF-0.22699999809265137
aF0.6850000023841858
aF21.615999221801758
aI709
aF-5.706029891967773
aF-41.53239440917969
aF-0.0
aF0.05582389608025551
aF-0.0010909339180216193
aF0.9677814245223999
aI0
a(ta(ta(ta(ta(ta(ta(taF1158073216.0
abag16
(g17
g18
Ntp61
Rp62
(lp63
g16
(g22
g18
Ntp64
Rp65
(lp66
I85295
ag16
(g26
g18
Ntp67
Rp68
(lp69
I1351133738
aI942328998
abaS'ardrone_base_link'
p70
abaF41.0
aI6
aI-8
aI-162
aI176
aI101545
aI511
aF0.023475434631109238
aF176.0630340576172
aF0.0
aF-0.33000001311302185
aF0.7720000147819519
aF21.60300064086914
aI712
aF2.6528279781341553
aF-41.102996826171875
aF-0.0
aF0.05806685984134674
aF-0.0031347398180514574
aF0.9543769955635071
aI0
a(ta(ta(ta(ta(ta(ta(taF1158138240.0
abag16
(g17
g18
Ntp71
Rp72
(lp73
g16
(g22
g18
Ntp74
Rp75
(lp76
I85296
ag16
(g26
g18
Ntp77
Rp78
(lp79
I1351133739
aI22344013
abaS'ardrone_base_link'
p80
abaF41.0
aI6
aI-8
aI-156
aI176
aI101552
aI511
aF0.0240324679762125
aF177.35621643066406
aF0.0
aF-0.39100000262260437
aF0.703000009059906
aF21.63599967956543
aI717
aF2.046682834625244
aF-30.484176635742188
aF-0.0
aF0.046148862689733505
aF-0.0001258636184502393
aF0.9396128058433533
aI0
a(ta(ta(ta(ta(ta(ta(taF1158203392.0
abag16
(g17
g18
Ntp81
Rp82
(lp83
g16
(g22
g18
Ntp84
Rp85
(lp86
I85297
ag16
(g26
g18
Ntp87
Rp88
(lp89
I1351133739
aI82341307
abaS'ardrone_base_link'
p90
abaF41.0
aI6
aI-14
aI-154
aI176
aI101533
aI511
aF0.02447611093521118
aF177.50857543945312
aF0.0
aF-0.3630000054836273
aF0.6840000152587891
aF21.60300064086914
aI719
aF2.522710084915161
aF-22.799192428588867
aF-0.0
aF0.05789453163743019
aF-0.0017128263134509325
aF0.932509183883667
aI0
a(ta(ta(ta(ta(ta(ta(taF1158268544.0
abag16
(g17
g18
Ntp91
Rp92
(lp93
g16
(g22
g18
Ntp94
Rp95
(lp96
I85298
ag16
(g26
g18
Ntp97
Rp98
(lp99
I1351133739
aI142326532
abaS'ardrone_base_link'
p100
abaF41.0
aI6
aI-8
aI-156
aI174
aI101552
aI511
aF0.024980558082461357
aF178.06629943847656
aF0.0
aF-0.23499999940395355
aF0.6079999804496765
aF21.566999435424805
aI721
aF-1.8823246955871582
aF-14.297927856445312
aF-0.0
aF0.055899493396282196
aF-0.0007759715663269162
aF0.9383158087730408
aI0
a(ta(ta(ta(ta(ta(ta(taF1158333568.0
abag16
(g17
g18
Ntp101
Rp102
(lp103
g16
(g22
g18
Ntp104
Rp105
(lp106
I85299
ag16
(g26
g18
Ntp107
Rp108
(lp109
I1351133739
aI222341830
abaS'ardrone_base_link'
p110
abaF41.0
aI6
aI-8
aI-154
aI178
aI101539
aI511
aF0.025093132629990578
aF179.61355590820312
aF0.0
aF-0.09799999743700027
aF0.6679999828338623
aF21.535999298095703
aI726
aF5.153107166290283
aF-7.701144218444824
aF-0.0
aF0.05439084768295288
aF-0.0025190848391503096
aF0.92649245262146
aI0
a(ta(ta(ta(ta(ta(ta(taF1158398592.0
abag16
(g17
g18
Ntp111
Rp112
(lp113
g16
(g22
g18
Ntp114
Rp115
(lp116
I85300
ag16
(g26
g18
Ntp117
Rp118
(lp119
I1351133739
aI282345310
abaS'ardrone_base_link'
p120
abaF41.0
aI6
aI-8
aI-152
aI176
aI101539
aI511
aF0.026470914483070374
aF-179.6006622314453
aF0.0
aF0.02800000086426735
aF0.6859999895095825
aF21.514999389648438
aI729
aF0.29349982738494873
aF-0.4380466341972351
aF-0.0
aF0.04357709735631943
aF-0.002842708257958293
aF0.9057391285896301
aI0
a(ta(ta(ta(ta(ta(ta(taF1158463744.0
abag16
(g17
g18
Ntp121
Rp122
(lp123
g16
(g22
g18
Ntp124
Rp125
(lp126
I85301
ag16
(g26
g18
Ntp127
Rp128
(lp129
I1351133739
aI342328677
abaS'ardrone_base_link'
p130
abaF41.0
aI6
aI-12
aI-154
aI178
aI101539
aI511
aF0.02742854878306389
aF-178.91366577148438
aF0.0
aF0.12300000339746475
aF0.7419999837875366
aF21.52199935913086
aI731
aF4.790695667266846
aF2.92897891998291
aF-0.0
aF0.05794448032975197
aF-0.006050554104149342
aF0.9042632579803467
aI0
a(ta(ta(ta(ta(ta(ta(taF1158528768.0
abag16
(g17
g18
Ntp131
Rp132
(lp133
g16
(g22
g18
Ntp134
Rp135
(lp136
I85302
ag16
(g26
g18
Ntp137
Rp138
(lp139
I1351133739
aI402330774
abaS'ardrone_base_link'
p140
abaF41.0
aI6
aI-10
aI-154
aI182
aI101545
aI511
aF0.027813147753477097
aF-177.7698974609375
aF0.0
aF0.24400000274181366
aF0.718999981880188
aF21.534000396728516
aI734
aF12.352161407470703
aF4.543947219848633
aF-0.0
aF0.04505534842610359
aF-0.001807155553251505
aF0.9016027450561523
aI0
a(ta(ta(ta(ta(ta(ta(taF1158594176.0
abag16
(g17
g18
Ntp141
Rp142
(lp143
g16
(g22
g18
Ntp144
Rp145
(lp146
I85303
ag16
(g26
g18
Ntp147
Rp148
(lp149
I1351133739
aI462325100
abaS'ardrone_base_link'
p150
abaF41.0
aI6
aI-8
aI-154
aI172
aI101536
aI511
aF0.02846050076186657
aF-177.18051147460938
aF0.0
aF0.27300000190734863
aF0.6349999904632568
aF21.55299949645996
aI735
aF18.653505325317383
aF8.689543724060059
aF-0.0
aF0.05209825560450554
aF-0.004359826911240816
aF0.9155970811843872
aI0
a(ta(ta(ta(ta(ta(ta(taF1159756032.0
abag16
(g17
g18
Ntp151
Rp152
(lp153
g16
(g22
g18
Ntp154
Rp155
(lp156
I85304
ag16
(g26
g18
Ntp157
Rp158
(lp159
I1351133739
aI542326477
abaS'ardrone_base_link'
p160
abaF41.0
aI6
aI-11
aI-153
aI173
aI101526
aI511
aF0.029098523780703545
aF-176.7153778076172
aF0.0
aF0.29499998688697815
aF0.49000000953674316
aF21.552000045776367
aI735
aF18.856508255004883
aF8.003576278686523
aF-0.0
aF0.049801863729953766
aF-0.005335675086826086
aF0.9201968312263489
aI0
a(ta(ta(ta(ta(ta(ta(taF1159821184.0
abag16
(g17
g18
Ntp161
Rp162
(lp163
g16
(g22
g18
Ntp164
Rp165
(lp166
I85305
ag16
(g26
g18
Ntp167
Rp168
(lp169
I1351133739
aI602339987
abaS'ardrone_base_link'
p170
abaF41.0
aI6
aI-13
aI-159
aI181
aI101539
aI511
aF0.030131042003631592
aF-175.22216796875
aF0.0
aF0.3240000009536743
aF0.367000013589859
aF21.55900001525879
aI736
aF13.953596115112305
aF13.987455368041992
aF-0.0
aF0.04767955467104912
aF-0.007103701122105122
aF0.9289016127586365
aI0
a(ta(ta(ta(ta(ta(ta(taF1159886464.0
abag16
(g17
g18
Ntp171
Rp172
(lp173
g16
(g22
g18
Ntp174
Rp175
(lp176
I85306
ag16
(g26
g18
Ntp177
Rp178
(lp179
I1351133739
aI662338793
abaS'ardrone_base_link'
p180
abaF41.0
aI6
aI-14
aI-156
aI176
aI101549
aI511
aF0.03082544356584549
aF-174.76011657714844
aF0.0
aF0.367000013589859
aF0.36399999260902405
aF21.54800033569336
aI733
aF14.844277381896973
aF10.16547679901123
aF-0.0
aF0.0504864826798439
aF-0.005488816648721695
aF0.9375276565551758
aI0
a(ta(ta(ta(ta(ta(ta(taF1159951744.0
abag16
(g17
g18
Ntp181
Rp182
(lp183
g16
(g22
g18
Ntp184
Rp185
(lp186
I85307
ag16
(g26
g18
Ntp187
Rp188
(lp189
I1351133739
aI722324058
abaS'ardrone_base_link'
p190
abaF41.0
aI6
aI-11
aI-151
aI175
aI101542
aI511
aF0.031432148069143295
aF-174.33932495117188
aF0.0
aF0.42500001192092896
aF0.3610000014305115
aF21.542999267578125
aI733
aF15.556008338928223
aF6.874149322509766
aF-0.0
aF0.04675358906388283
aF-0.004891279619187117
aF0.9326963424682617
aI0
a(ta(ta(ta(ta(ta(ta(taF1160016384.0
abag16
(g17
g18
Ntp191
Rp192
(lp193
g16
(g22
g18
Ntp194
Rp195
(lp196
I85308
ag16
(g26
g18
Ntp197
Rp198
(lp199
I1351133739
aI802339047
abaS'ardrone_base_link'
p200
abaF41.0
aI6
aI-10
aI-156
aI180
aI101529
aI511
aF0.03199630603194237
aF-174.0748748779297
aF0.0
aF0.48500001430511475
aF0.38499999046325684
aF21.535999298095703
aI732
aF12.163983345031738
aF4.207472801208496
aF-0.0
aF0.05689503625035286
aF-0.005545858293771744
aF0.927662193775177
aI0
a(ta(ta(ta(ta(ta(ta(taF1160081920.0
abag16
(g17
g18
Ntp201
Rp202
(lp203
g16
(g22
g18
Ntp204
Rp205
(lp206
I85309
ag16
(g26
g18
Ntp207
Rp208
(lp209
I1351133739
aI862341075
abaS'ardrone_base_link'
p210
abaF41.0
aI6
aI-14
aI-156
aI174
aI101539
aI511
aF0.0325021892786026
aF-173.9324951171875
aF0.0
aF0.39800000190734863
aF0.32600000500679016
aF21.530000686645508
aI732
aF10.264267921447754
aF-1.7638081312179565
aF-0.0
aF0.053510066121816635
aF-0.006743565667420626
aF0.9418339133262634
aI0
a(ta(ta(ta(ta(ta(ta(taF1160146560.0
abag16
(g17
g18
Ntp211
Rp212
(lp213
g16
(g22
g18
Ntp214
Rp215
(lp216
I85310
ag16
(g26
g18
Ntp217
Rp218
(lp219
I1351133739
aI922341566
abaS'ardrone_base_link'
p220
abaF41.0
aI6
aI-18
aI-160
aI174
aI101539
aI511
aF0.03247060999274254
aF-172.5971221923828
aF0.0
aF0.2639999985694885
aF0.3440000116825104
aF21.51099967956543
aI733
aF11.332686424255371
aF-0.2941875755786896
aF-0.0
aF0.05300440266728401
aF-0.001991645433008671
aF0.9351954460144043
aI0
a(ta(ta(ta(ta(ta(ta(taF1160211712.0
abag16
(g17
g18
Ntp221
Rp222
(lp223
g16
(g22
g18
Ntp224
Rp225
(lp226
I85311
ag16
(g26
g18
Ntp227
Rp228
(lp229
I1351133740
aI2344463
abaS'ardrone_base_link'
p230
abaF41.0
aI6
aI-10
aI-154
aI174
aI101552
aI511
aF0.033421315252780914
aF-172.8273468017578
aF0.0
aF0.23100000619888306
aF0.32600000500679016
aF21.48699951171875
aI734
aF3.616006851196289
aF1.730226993560791
aF-0.0
aF0.048823047429323196
aF-0.00969619955867529
aF0.9372317790985107
aI0
a(ta(ta(ta(ta(ta(ta(taF1160276736.0
abag16
(g17
g18
Ntp231
Rp232
(lp233
g16
(g22
g18
Ntp234
Rp235
(lp236
I85312
ag16
(g26
g18
Ntp237
Rp238
(lp239
I1351133740
aI62340314
abaS'ardrone_base_link'
p240
abaF41.0
aI6
aI-7
aI-159
aI177
aI101529
aI511
aF0.03398241102695465
aF-172.5340576171875
aF0.0
aF0.2290000021457672
aF0.40400001406669617
aF21.481000900268555
aI731
aF2.055865526199341
aF4.986877918243408
aF-0.0
aF0.052633970975875854
aF-0.0036032279022037983
aF0.9483267664909363
aI0
a(ta(ta(ta(ta(ta(ta(taF1160341888.0
abag16
(g17
g18
Ntp241
Rp242
(lp243
g16
(g22
g18
Ntp244
Rp245
(lp246
I85313
ag16
(g26
g18
Ntp247
Rp248
(lp249
I1351133740
aI122332483
abaS'ardrone_base_link'
p250
abaF41.0
aI6
aI-8
aI-160
aI174
aI101545
aI511
aF0.03364744037389755
aF-171.875732421875
aF0.0
aF0.27900001406669617
aF0.49799999594688416
aF21.469999313354492
aI731
aF6.436459064483643
aF2.740525245666504
aF-0.0
aF0.06399885565042496
aF-0.00386381009593606
aF0.9414121508598328
aI0
a(ta(ta(ta(ta(ta(ta(taF1160407040.0
abag16
(g17
g18
Ntp251
Rp252
(lp253
g16
(g22
g18
Ntp254
Rp255
(lp256
I85314
ag16
(g26
g18
Ntp257
Rp258
(lp259
I1351133740
aI182325029
abaS'ardrone_base_link'
p260
abaF41.0
aI6
aI-12
aI-158
aI178
aI101539
aI511
aF0.03271474689245224
aF-170.754150390625
aF0.0
aF0.29499998688697815
aF0.5239999890327454
aF21.500999450683594
aI732
aF14.024120330810547
aF0.08736182749271393
aF-0.0
aF0.04977016896009445
aF-0.007069870829582214
aF0.9319341778755188
aI0
a(ta(ta(ta(ta(ta(ta(taF1160471936.0
abag16
(g17
g18
Ntp261
Rp262
(lp263
g16
(g22
g18
Ntp264
Rp265
(lp266
I85315
ag16
(g26
g18
Ntp267
Rp268
(lp269
I1351133740
aI242322886
abaS'ardrone_base_link'
p270
abaF41.0
aI4
aI-16
aI-160
aI174
aI101552
aI511
aF0.03320581093430519
aF-170.8637237548828
aF0.0
aF0.3160000145435333
aF0.4580000042915344
aF21.496000289916992
aI733
aF12.925375938415527
aF-2.1328790187835693
aF-0.0
aF0.050425946712493896
aF-0.003311931388452649
aF0.9178112745285034
aI0
a(ta(ta(ta(ta(ta(ta(taF1160537088.0
abag16
(g17
g18
Ntp271
Rp272
(lp273
g16
(g22
g18
Ntp274
Rp275
(lp276
I85316
ag16
(g26
g18
Ntp277
Rp278
(lp279
I1351133740
aI322322358
abaS'ardrone_base_link'
p280
abaF41.0
aI4
aI-15
aI-153
aI177
aI101552
aI511
aF0.034013859927654266
aF-170.1982879638672
aF0.0
aF0.26899999380111694
aF0.382999986410141
aF21.534000396728516
aI732
aF16.03944206237793
aF2.075850486755371
aF-0.0
aF0.04534229263663292
aF-0.005285950377583504
aF0.9096763134002686
aI0
a(ta(ta(ta(ta(ta(ta(taF1160602240.0
abag16
(g17
g18
Ntp281
Rp282
(lp283
g16
(g22
g18
Ntp284
Rp285
(lp286
I85317
ag16
(g26
g18
Ntp287
Rp288
(lp289
I1351133740
aI382339467
abaS'ardrone_base_link'
p290
abaF41.0
aI4
aI-9
aI-151
aI177
aI101536
aI511
aF0.034273527562618256
aF-170.03622436523438
aF0.0
aF0.21699999272823334
aF0.3529999852180481
aF21.506000518798828
aI732
aF12.925376892089844
aF2.397810935974121
aF-0.0
aF0.05511808022856712
aF-0.0014010288286954165
aF0.9186837673187256
aI0
a(ta(ta(ta(ta(ta(ta(taF1160667392.0
abag16
(g17
g18
Ntp291
Rp292
(lp293
g16
(g22
g18
Ntp294
Rp295
(lp296
I85318
ag16
(g26
g18
Ntp297
Rp298
(lp299
I1351133740
aI442345149
abaS'ardrone_base_link'
p300
abaF41.0
aI4
aI-14
aI-156
aI172
aI101565
aI511
aF0.03461974114179611
aF-170.03964233398438
aF0.0
aF0.18199999630451202
aF0.3400000035762787
aF21.53700065612793
aI732
aF12.145379066467285
aF2.748762607574463
aF-0.0
aF0.04760979488492012
aF-0.006340245716273785
aF0.9258753061294556
aI0
a(ta(ta(ta(ta(ta(ta(taF1161829504.0
abag16
(g17
g18
Ntp301
Rp302
(lp303
g16
(g22
g18
Ntp304
Rp305
(lp306
I85319
ag16
(g26
g18
Ntp307
Rp308
(lp309
I1351133740
aI522326106
abaS'ardrone_base_link'
p310
abaF41.0
aI4
aI-6
aI-158
aI180
aI101536
aI511
aF0.03526104986667633
aF-169.35691833496094
aF0.0
aF0.1469999998807907
aF0.40299999713897705
aF21.530000686645508
aI731
aF9.365734100341797
aF5.818222999572754
aF-0.0
aF0.05081411451101303
aF-0.0017856828635558486
aF0.9165817499160767
aI0
a(ta(ta(ta(ta(ta(ta(taF1161894528.0
abag16
(g17
g18
Ntp311
Rp312
(lp313
g16
(g22
g18
Ntp314
Rp315
(lp316
I85320
ag16
(g26
g18
Ntp317
Rp318
(lp319
I1351133740
aI582340852
abaS'ardrone_base_link'
p320
abaF41.0
aI4
aI-9
aI-161
aI177
aI101545
aI511
aF0.035619381815195084
aF-169.1796417236328
aF0.0
aF0.1459999978542328
aF0.5059999823570251
aF21.55299949645996
aI730
aF7.645106792449951
aF7.576622486114502
aF-0.0
aF0.05271147936582565
aF-0.004247379954904318
aF0.9215344786643982
aI0
a(ta(ta(ta(ta(ta(ta(taF1161960064.0
abag16
(g17
g18
Ntp321
Rp322
(lp323
g16
(g22
g18
Ntp324
Rp325
(lp326
I85321
ag16
(g26
g18
Ntp327
Rp328
(lp329
I1351133740
aI642566479
abaS'ardrone_base_link'
p330
abaF41.0
aI4
aI-9
aI-161
aI175
aI101558
aI511
aF0.03558859974145889
aF-168.92372131347656
aF0.0
aF0.20000000298023224
aF0.6069999933242798
aF21.55500030517578
aI727
aF7.994811058044434
aF6.068343162536621
aF-0.0
aF0.05769734084606171
aF-0.008299891836941242
aF0.9313516616821289
aI0
a(ta(ta(ta(ta(ta(ta(taF1162024704.0
abag16
(g17
g18
Ntp331
Rp332
(lp333
g16
(g22
g18
Ntp334
Rp335
(lp336
I85322
ag16
(g26
g18
Ntp337
Rp338
(lp339
I1351133740
aI702383788
abaS'ardrone_base_link'
p340
abaF41.0
aI4
aI-11
aI-157
aI177
aI101545
aI511
aF0.03598424792289734
aF-167.80142211914062
aF0.0
aF0.17100000381469727
aF0.6510000228881836
aF21.569000244140625
aI724
aF13.365684509277344
aF8.845410346984863
aF-0.0
aF0.04939160495996475
aF-0.0028423327021300793
aF0.9330904483795166
aI0
a(ta(ta(ta(ta(ta(ta(taF1162089728.0
abag16
(g17
g18
Ntp341
Rp342
(lp343
g16
(g22
g18
Ntp344
Rp345
(lp346
I85323
ag16
(g26
g18
Ntp347
Rp348
(lp349
I1351133740
aI782404423
abaS'ardrone_base_link'
p350
abaF41.0
aI3
aI-12
aI-156
aI182
aI101542
aI511
aF0.03630293160676956
aF-168.27198791503906
aF0.0
aF0.09200000017881393
aF0.6140000224113464
aF21.551000595092773
aI720
aF14.782022476196289
aF5.085697650909424
aF-0.0
aF0.05113048478960991
aF-0.007342933677136898
aF0.9442009329795837
aI0
a(ta(ta(ta(ta(ta(ta(taF1162154880.0
abag16
(g17
g18
Ntp351
Rp352
(lp353
g16
(g22
g18
Ntp354
Rp355
(lp356
I85324
ag16
(g26
g18
Ntp357
Rp358
(lp359
I1351133740
aI842425620
abaS'ardrone_base_link'
p360
abaF41.0
aI3
aI-15
aI-165
aI177
aI101539
aI511
aF0.03708912804722786
aF-166.7638397216797
aF0.0
aF0.1679999977350235
aF0.3269999921321869
aF20.8799991607666
aI720
aF19.119131088256836
aF26.000633239746094
aF-0.0
aF0.05361562967300415
aF-0.008512766100466251
aF1.008619785308838
aI0
a(ta(ta(ta(ta(ta(ta(taF1162220032.0
abag16
(g17
g18
Ntp361
Rp362
(lp363
g16
(g22
g18
Ntp364
Rp365
(lp366
I85325
ag16
(g26
g18
Ntp367
Rp368
(lp369
I1351133740
aI902380953
abaS'ardrone_base_link'
p370
abaF41.0
aI3
aI-9
aI-155
aI177
aI101539
aI511
aF0.037448737770318985
aF-167.68728637695312
aF0.0
aF0.3580000102519989
aF-0.02800000086426735
aF20.034000396728516
aI724
aF10.371017456054688
aF17.64613914489746
aF-0.0
aF0.05073472857475281
aF-0.013551663607358932
aF1.046741008758545
aI0
a(ta(ta(ta(ta(ta(ta(taF1162285056.0
abag16
(g17
g18
Ntp371
Rp372
(lp373
g16
(g22
g18
Ntp374
Rp375
(lp376
I85326
ag16
(g26
g18
Ntp377
Rp378
(lp379
I1351133740
aI962394361
abaS'ardrone_base_link'
p380
abaF41.0
aI3
aI-12
aI-158
aI176
aI101532
aI511
aF0.03700787574052811
aF-168.32635498046875
aF0.0
aF0.5270000100135803
aF-0.3199999928474426
aF19.142000198364258
aI731
aF1.2378406524658203
aF0.017615675926208496
aF-0.0
aF0.051072295755147934
aF-0.004712277557700872
aF1.0284503698349
aI0
a(ta(ta(ta(ta(ta(ta(taF1162350208.0
abag16
(g17
g18
Ntp381
Rp382
(lp383
g16
(g22
g18
Ntp384
Rp385
(lp386
I85327
ag16
(g26
g18
Ntp387
Rp388
(lp389
I1351133741
aI42352525
abaS'ardrone_base_link'
p390
abaF41.0
aI3
aI-3
aI-159
aI175
aI101558
aI511
aF0.03674986958503723
aF-169.38217163085938
aF0.0
aF0.5600000023841858
aF-0.4869999885559082
aF18.216999053955078
aI742
aF-18.93988800048828
aF-20.29856300354004
aF-0.0
aF0.05782172828912735
aF-0.0025376672856509686
aF1.0213298797607422
aI0
a(ta(ta(ta(ta(ta(ta(taF1162415232.0
abag16
(g17
g18
Ntp391
Rp392
(lp393
g16
(g22
g18
Ntp394
Rp395
(lp396
I85328
ag16
(g26
g18
Ntp397
Rp398
(lp399
I1351133741
aI102348294
abaS'ardrone_base_link'
p400
abaF41.0
aI3
aI-7
aI-153
aI175
aI101536
aI511
aF0.036624085158109665
aF-169.9488983154297
aF0.0
aF0.5
aF-0.5410000085830688
aF17.31100082397461
aI754
aF-31.8720703125
aF-37.02437973022461
aF-0.0
aF0.06192576885223389
aF-0.006617402657866478
aF1.0108757019042969
aI0
a(ta(ta(ta(ta(ta(ta(taF1162480384.0
abag16
(g17
g18
Ntp401
Rp402
(lp403
g16
(g22
g18
Ntp404
Rp405
(lp406
I85329
ag16
(g26
g18
Ntp407
Rp408
(lp409
I1351133741
aI162327152
abaS'ardrone_base_link'
p410
abaF41.0
aI3
aI-2
aI-154
aI172
aI101552
aI511
aF0.03659616783261299
aF-171.97299194335938
aF0.0
aF0.4300000071525574
aF-0.6019999980926514
aF16.416000366210938
aI770
aF-39.99165344238281
aF-57.587425231933594
aF-0.0
aF0.046607617288827896
aF-0.005714205093681812
aF1.004779577255249
aI0
a(ta(ta(ta(ta(ta(ta(taF1162545536.0
abag16
(g17
g18
Ntp411
Rp412
(lp413
g16
(g22
g18
Ntp414
Rp415
(lp416
I85330
ag16
(g26
g18
Ntp417
Rp418
(lp419
I1351133741
aI222346107
abaS'ardrone_base_link'
p420
abaF41.0
aI3
aI4
aI-156
aI176
aI101545
aI511
aF0.037434305995702744
aF-173.0694122314453
aF0.0
aF0.36399999260902405
aF-0.5450000166893005
aF15.532999992370605
aI788
aF-58.819793701171875
aF-70.72533416748047
aF-0.0
aF0.05511533096432686
aF-0.0010751558002084494
aF0.990248441696167
aI0
a(ta(ta(ta(ta(ta(ta(taF1162610560.0
abag16
(g17
g18
Ntp421
Rp422
(lp423
g16
(g22
g18
Ntp424
Rp425
(lp426
I85331
ag16
(g26
g18
Ntp427
Rp428
(lp429
I1351133741
aI282396895
abaS'ardrone_base_link'
p430
abaF41.0
aI3
aI-1
aI-153
aI171
aI101549
aI511
aF0.03673224151134491
aF-173.85472106933594
aF0.0
aF0.28999999165534973
aF-0.36899998784065247
aF14.704000473022461
aI807
aF-53.267784118652344
aF-82.45933532714844
aF-0.0
aF0.054254163056612015
aF-0.003083372488617897
aF0.9824358224868774
aI0
a(ta(ta(ta(ta(ta(ta(taF1162675584.0
abag16
(g17
g18
Ntp431
Rp432
(lp433
g16
(g22
g18
Ntp434
Rp435
(lp436
I85332
ag16
(g26
g18
Ntp437
Rp438
(lp439
I1351133741
aI362384265
abaS'ardrone_base_link'
p440
abaF41.0
aI3
aI-4
aI-154
aI176
aI101539
aI511
aF0.03675931692123413
aF-176.4580841064453
aF0.0
aF0.28200000524520874
aF-0.27900001406669617
aF13.892000198364258
aI827
aF-54.031700134277344
aF-96.98372650146484
aF-0.0
aF0.0457671619951725
aF-0.01077406108379364
aF0.9620395302772522
aI0
a(ta(ta(ta(ta(ta(ta(taF1162740992.0
abag16
(g17
g18
Ntp441
Rp442
(lp443
g16
(g22
g18
Ntp444
Rp445
(lp446
I85333
ag16
(g26
g18
Ntp447
Rp448
(lp449
I1351133741
aI422355719
abaS'ardrone_base_link'
p450
abaF41.0
aI3
aI2
aI-146
aI170
aI101542
aI511
aF0.0363691970705986
aF-178.76626586914062
aF0.0
aF0.2240000069141388
aF-0.1469999998807907
aF13.102999687194824
aI852
aF-51.367984771728516
aF-106.05572509765625
aF-0.0
aF0.0614740289747715
aF-0.00320479366928339
aF0.9563962817192078
aI0
a(ta(ta(ta(ta(ta(ta(taF1162805760.0
abag16
(g17
g18
Ntp451
Rp452
(lp453
g16
(g22
g18
Ntp454
Rp455
(lp456
I85334
ag16
(g26
g18
Ntp457
Rp458
(lp459
I1351133741
aI482377988
abaS'ardrone_base_link'
p460
abaF41.0
aI3
aI3
aI-147
aI177
aI101558
aI511
aF0.03559192642569542
aF179.88136291503906
aF0.0
aF0.1940000057220459
aF-0.09300000220537186
aF12.366000175476074
aI874
aF-43.23373794555664
aF-110.79680633544922
aF-0.0
aF0.06195295602083206
aF-0.007409398443996906
aF0.9379652738571167
aI0
a(ta(ta(ta(ta(ta(ta(taF1163968000.0
abag16
(g17
g18
Ntp461
Rp462
(lp463
g16
(g22
g18
Ntp464
Rp465
(lp466
I85335
ag16
(g26
g18
Ntp467
Rp468
(lp469
I1351133741
aI562345999
abaS'ardrone_base_link'
p470
abaF41.0
aI3
aI5
aI-155
aI175
aI101545
aI511
aF0.03552509471774101
aF178.63223266601562
aF0.0
aF0.1679999977350235
aF-0.1289999932050705
aF11.651000022888184
aI899
aF-46.72759246826172
aF-110.96123504638672
aF-0.0
aF0.05581282824277878
aF-0.004698042292147875
aF0.9343221783638
aI0
a(ta(ta(ta(ta(ta(ta(taF1164033280.0
abag16
(g17
g18
Ntp471
Rp472
(lp473
g16
(g22
g18
Ntp474
Rp475
(lp476
I85336
ag16
(g26
g18
Ntp477
Rp478
(lp479
I1351133741
aI622435000
abaS'ardrone_base_link'
p480
abaF41.0
aI3
aI6
aI-152
aI172
aI101558
aI511
aF0.03470034897327423
aF177.90394592285156
aF0.0
aF0.1979999989271164
aF-0.029999999329447746
aF10.98900032043457
aI924
aF-41.11448669433594
aF-110.33123016357422
aF-0.0
aF0.06953319907188416
aF-0.006208735518157482
aF0.9153591394424438
aI0
a(ta(ta(ta(ta(ta(ta(taF1164098176.0
abag16
(g17
g18
Ntp481
Rp482
(lp483
g16
(g22
g18
Ntp484
Rp485
(lp486
I85337
ag16
(g26
g18
Ntp487
Rp488
(lp489
I1351133741
aI682383647
abaS'ardrone_base_link'
p490
abaF41.0
aI3
aI8
aI-150
aI176
aI101533
aI511
aF0.034638017416000366
aF176.318603515625
aF0.0
aF0.24500000476837158
aF-0.014000000432133675
aF10.324000358581543
aI946
aF-53.948509216308594
aF-112.0354232788086
aF-0.0
aF0.05978876352310181
aF-0.005128048826009035
aF0.9094529747962952
aI0
a(ta(ta(ta(ta(ta(ta(taF1164163456.0
abag16
(g17
g18
Ntp491
Rp492
(lp493
g16
(g22
g18
Ntp494
Rp495
(lp496
I85338
ag16
(g26
g18
Ntp497
Rp498
(lp499
I1351133741
aI742374314
abaS'ardrone_base_link'
p500
abaF41.0
aI3
aI12
aI-146
aI172
aI101562
aI511
aF0.033390238881111145
aF175.4569854736328
aF0.0
aF0.25200000405311584
aF0.125
aF9.732000350952148
aI968
aF-39.913089752197266
aF-106.71729278564453
aF-0.0
aF0.07019052654504776
aF-0.006193526089191437
aF0.9006494879722595
aI0
a(ta(ta(ta(ta(ta(ta(taF1164228480.0
abag16
(g17
g18
Ntp501
Rp502
(lp503
g16
(g22
g18
Ntp504
Rp505
(lp506
I85339
ag16
(g26
g18
Ntp507
Rp508
(lp509
I1351133741
aI822372739
abaS'ardrone_base_link'
p510
abaF41.0
aI3
aI16
aI-150
aI176
aI101536
aI511
aF0.03357212617993355
aF174.76754760742188
aF0.0
aF0.18700000643730164
aF0.16500000655651093
aF9.161999702453613
aI989
aF-43.586669921875
aF-105.27481842041016
aF-0.0
aF0.05484363064169884
aF-0.00039821580867283046
aF0.8943488597869873
aI0
a(ta(ta(ta(ta(ta(ta(taF1164293376.0
abag16
(g17
g18
Ntp511
Rp512
(lp513
g16
(g22
g18
Ntp514
Rp515
(lp516
I85340
ag16
(g26
g18
Ntp517
Rp518
(lp519
I1351133741
aI882430889
abaS'ardrone_base_link'
p520
abaF41.0
aI3
aI11
aI-151
aI169
aI101549
aI511
aF0.03294191136956215
aF173.9574737548828
aF0.0
aF0.0689999982714653
aF0.29499998688697815
aF8.62600040435791
aI1008
aF-31.355606079101562
aF-98.79023742675781
aF-0.0
aF0.06439261883497238
aF-0.0017196799162775278
aF0.8917909264564514
aI0
a(ta(ta(ta(ta(ta(ta(taF1164358528.0
abag16
(g17
g18
Ntp521
Rp522
(lp523
g16
(g22
g18
Ntp524
Rp525
(lp526
I85341
ag16
(g26
g18
Ntp527
Rp528
(lp529
I1351133741
aI942384197
abaS'ardrone_base_link'
p530
abaF41.0
aI3
aI15
aI-149
aI177
aI101545
aI511
aF0.03317984193563461
aF173.66928100585938
aF0.0
aF-0.024000000208616257
aF0.34299999475479126
aF8.105999946594238
aI1025
aF-36.53954315185547
aF-90.74622344970703
aF-0.0
aF0.06177457422018051
aF0.0017210000660270452
aF0.8962736129760742
aI0
a(ta(ta(ta(ta(ta(ta(taF1164423680.0
abag16
(g17
g18
Ntp531
Rp532
(lp533
g16
(g22
g18
Ntp534
Rp535
(lp536
I85342
ag16
(g26
g18
Ntp537
Rp538
(lp539
I1351133742
aI2402513
abaS'ardrone_base_link'
p540
abaF41.0
aI3
aI17
aI-151
aI177
aI101542
aI511
aF0.033253204077482224
aF173.14675903320312
aF0.0
aF-0.06300000101327896
aF0.3529999852180481
aF7.614999771118164
aI1042
aF-27.875408172607422
aF-83.4426498413086
aF-0.0
aF0.05306811258196831
aF-0.005593577865511179
aF0.8931792974472046
aI0
a(ta(ta(ta(ta(ta(ta(taF1164489216.0
abag16
(g17
g18
Ntp541
Rp542
(lp543
g16
(g22
g18
Ntp544
Rp545
(lp546
I85343
ag16
(g26
g18
Ntp547
Rp548
(lp549
I1351133742
aI82353704
abaS'ardrone_base_link'
p550
abaF41.0
aI3
aI20
aI-144
aI176
aI101542
aI510
aF0.03393320366740227
aF172.7635955810547
aF0.0
aF-0.06599999964237213
aF0.3529999852180481
aF7.126999855041504
aI1057
aF-27.507511138916016
aF-73.16446685791016
aF-0.0
aF0.057388029992580414
aF-0.0012760707177221775
aF0.8909170031547546
aI0
a(ta(ta(ta(ta(ta(ta(taF1164553728.0
abag16
(g17
g18
Ntp551
Rp552
(lp553
g16
(g22
g18
Ntp554
Rp555
(lp556
I85344
ag16
(g26
g18
Ntp557
Rp558
(lp559
I1351133742
aI143308795
abaS'ardrone_base_link'
p560
abaF41.0
aI3
aI17
aI-147
aI177
aI101536
aI511
aF0.03446841612458229
aF172.95437622070312
aF0.0
aF-0.06300000101327896
aF0.3230000138282776
aF6.639999866485596
aI1069
aF-21.77893829345703
aF-59.87699508666992
aF-0.0
aF0.048037249594926834
aF-0.003908377140760422
aF0.8905506730079651
aI0
a(ta(ta(ta(ta(ta(ta(taF1164619136.0
abag16
(g17
g18
Ntp561
Rp562
(lp563
g16
(g22
g18
Ntp564
Rp565
(lp566
I85345
ag16
(g26
g18
Ntp567
Rp568
(lp569
I1351133742
aI202355927
abaS'ardrone_base_link'
p570
abaF41.0
aI3
aI15
aI-149
aI173
aI101536
aI511
aF0.03542483225464821
aF172.1779327392578
aF0.0
aF-0.06700000166893005
aF0.21699999272823334
aF6.184000015258789
aI1079
aF-27.72726058959961
aF-58.2787971496582
aF-0.0
aF0.05682685971260071
aF-0.0035090085584670305
aF0.8914716243743896
aI0
a(ta(ta(ta(ta(ta(ta(taF1164684416.0
abag16
(g17
g18
Ntp571
Rp572
(lp573
g16
(g22
g18
Ntp574
Rp575
(lp576
I85346
ag16
(g26
g18
Ntp577
Rp578
(lp579
I1351133742
aI262354613
abaS'ardrone_base_link'
p580
abaF41.0
aI3
aI23
aI-143
aI177
aI101539
aI510
aF0.035104818642139435
aF173.4020538330078
aF0.0
aF-0.007000000216066837
aF0.164000004529953
aF5.775000095367432
aI1088
aF-22.45313835144043
aF-44.900115966796875
aF-0.0
aF0.058446336537599564
aF0.0022507777903229
aF0.8868756890296936
aI0
a(ta(ta(ta(ta(ta(ta(taF1164748928.0
abag16
(g17
g18
Ntp581
Rp582
(lp583
g16
(g22
g18
Ntp584
Rp585
(lp586
I85347
ag16
(g26
g18
Ntp587
Rp588
(lp589
I1351133742
aI342359472
abaS'ardrone_base_link'
p590
abaF41.0
aI3
aI15
aI-143
aI175
aI101545
aI511
aF0.03523695096373558
aF173.87705993652344
aF0.0
aF0.0989999994635582
aF0.125
aF5.36299991607666
aI1095
aF-30.495206832885742
aF-43.957916259765625
aF-0.0
aF0.05920370668172836
aF-0.005315477028489113
aF0.8923928737640381
aI0
a(ta(ta(ta(ta(ta(ta(taF1164814080.0
abag16
(g17
g18
Ntp591
Rp592
(lp593
g16
(g22
g18
Ntp594
Rp595
(lp596
I85348
ag16
(g26
g18
Ntp597
Rp598
(lp599
I1351133742
aI402356334
abaS'ardrone_base_link'
p600
abaF41.0
aI3
aI22
aI-140
aI174
aI101539
aI511
aF0.03500429540872574
aF175.05332946777344
aF0.0
aF0.18000000715255737
aF0.18299999833106995
aF5.010000228881836
aI1100
aF-27.822174072265625
aF-36.95665740966797
aF-0.0
aF0.05720457062125206
aF-0.0036782335955649614
aF0.9037667512893677
aI0
a(ta(ta(ta(ta(ta(ta(taF1164879232.0
abag16
(g17
g18
Ntp601
Rp602
(lp603
g16
(g22
g18
Ntp604
Rp605
(lp606
I85349
ag16
(g26
g18
Ntp607
Rp608
(lp609
I1351133742
aI462403034
abaS'ardrone_base_link'
p610
abaF41.0
aI3
aI19
aI-147
aI171
aI101555
aI511
aF0.03536229208111763
aF174.60325622558594
aF0.0
aF0.28200000524520874
aF0.15800000727176666
aF4.635000228881836
aI1104
aF-31.027587890625
aF-40.24848937988281
aF-0.0
aF0.05330206826329231
aF0.0008604997419752181
aF0.8954416513442993
aI0
a(ta(ta(ta(ta(ta(ta(taF1166041344.0
abag16
(g17
g18
Ntp611
Rp612
(lp613
g16
(g22
g18
Ntp614
Rp615
(lp616
I85350
ag16
(g26
g18
Ntp617
Rp618
(lp619
I1351133742
aI522379449
abaS'ardrone_base_link'
p620
abaF41.0
aI3
aI20
aI-134
aI182
aI101532
aI511
aF0.0356004498898983
aF174.2462615966797
aF0.0
aF0.3330000042915344
aF0.18400000035762787
aF4.283999919891357
aI1105
aF-28.552528381347656
aF-43.314491271972656
aF-0.0
aF0.05462361499667168
aF-0.007087385281920433
aF0.8975449800491333
aI0
a(ta(ta(ta(ta(ta(ta(taF1166106496.0
abag16
(g17
g18
Ntp621
Rp622
(lp623
g16
(g22
g18
Ntp624
Rp625
(lp626
I85351
ag16
(g26
g18
Ntp627
Rp628
(lp629
I1351133742
aI602382539
abaS'ardrone_base_link'
p630
abaF41.0
aI3
aI17
aI-139
aI175
aI101539
aI510
aF0.03599000722169876
aF173.5167236328125
aF0.0
aF0.335999995470047
aF0.1599999964237213
aF3.9149999618530273
aI1108
aF-28.91986846923828
aF-48.210655212402344
aF-0.0
aF0.05656494200229645
aF-0.006962366867810488
aF0.9034314751625061
aI0
a(ta(ta(ta(ta(ta(ta(taF1166171520.0
abag16
(g17
g18
Ntp631
Rp632
(lp633
g16
(g22
g18
Ntp634
Rp635
(lp636
I85352
ag16
(g26
g18
Ntp637
Rp638
(lp639
I1351133742
aI662401480
abaS'ardrone_base_link'
p640
abaF41.0
aI3
aI15
aI-143
aI177
aI101523
aI511
aF0.03697740659117699
aF173.10899353027344
aF0.0
aF0.3190000057220459
aF0.15199999511241913
aF3.578000068664551
aI1109
aF-38.0150260925293
aF-48.55143356323242
aF-0.0
aF0.051054805517196655
aF-0.0034626242704689503
aF0.905211329460144
aI0
a(ta(ta(ta(ta(ta(ta(taF1166236672.0
abag16
(g17
g18
Ntp641
Rp642
(lp643
g16
(g22
g18
Ntp644
Rp645
(lp646
I85353
ag16
(g26
g18
Ntp647
Rp648
(lp649
I1351133742
aI722390164
abaS'ardrone_base_link'
p650
abaF41.0
aI3
aI20
aI-142
aI176
aI101549
aI511
aF0.037224236875772476
aF172.6393585205078
aF0.0
aF0.28999999165534973
aF0.13500000536441803
aF3.246999979019165
aI1109
aF-32.721309661865234
aF-53.626075744628906
aF-0.0
aF0.055424489080905914
aF-0.008841022849082947
aF0.9188743233680725
aI0
a(ta(ta(ta(ta(ta(ta(taF1166301696.0
abag16
(g17
g18
Ntp651
Rp652
(lp653
g16
(g22
g18
Ntp654
Rp655
(lp656
I85354
ag16
(g26
g18
Ntp657
Rp658
(lp659
I1351133742
aI782347702
abaS'ardrone_base_link'
p660
abaF41.0
aI3
aI18
aI-140
aI176
aI101520
aI510
aF0.03741060942411423
aF172.44198608398438
aF0.0
aF0.2809999883174896
aF0.08399999886751175
aF2.9230000972747803
aI1109
aF-32.09659194946289
aF-54.89591979980469
aF-0.0
aF0.05680331587791443
aF-0.0005097879329696298
aF0.9145253300666809
aI0
a(ta(ta(ta(ta(ta(ta(taF1166366848.0
abag16
(g17
g18
Ntp661
Rp662
(lp663
g16
(g22
g18
Ntp664
Rp665
(lp666
I85355
ag16
(g26
g18
Ntp667
Rp668
(lp669
I1351133742
aI862369213
abaS'ardrone_base_link'
p670
abaF41.0
aI3
aI20
aI-138
aI172
aI101555
aI511
aF0.037852659821510315
aF172.43408203125
aF0.0
aF0.2939999997615814
aF0.05000000074505806
aF2.615999937057495
aI1109
aF-32.934715270996094
aF-55.56025314331055
aF-0.0
aF0.04936343804001808
aF-0.010510741733014584
aF0.9130085706710815
aI0
a(ta(ta(ta(ta(ta(ta(taF1166431744.0
abag16
(g17
g18
Ntp671
Rp672
(lp673
g16
(g22
g18
Ntp674
Rp675
(lp676
I85356
ag16
(g26
g18
Ntp677
Rp678
(lp679
I1351133742
aI922452942
abaS'ardrone_base_link'
p680
abaF41.0
aI3
aI22
aI-140
aI170
aI101545
aI511
aF0.03804897516965866
aF171.8094940185547
aF0.0
aF0.24699999392032623
aF-0.04899999871850014
aF2.309999942779541
aI1107
aF-23.39362335205078
aF-62.28541564941406
aF-0.0
aF0.05163491517305374
aF0.0008160700090229511
aF0.9187338352203369
aI0
a(ta(ta(ta(ta(ta(ta(taF1166497024.0
abag16
(g17
g18
Ntp681
Rp682
(lp683
g16
(g22
g18
Ntp684
Rp685
(lp686
I85357
ag16
(g26
g18
Ntp687
Rp688
(lp689
I1351133742
aI982425693
abaS'ardrone_base_link'
p690
abaF41.0
aI3
aI24
aI-142
aI172
aI101542
aI511
aF0.03901979699730873
aF172.15814208984375
aF0.0
aF0.15800000727176666
aF-0.0989999994635582
aF2.01200008392334
aI1105
aF-32.703250885009766
aF-62.01887130737305
aF-0.0
aF0.049069736152887344
aF-0.004681020509451628
aF0.934844434261322
aI0
a(ta(ta(ta(ta(ta(ta(taF1166562048.0
abag16
(g17
g18
Ntp691
Rp692
(lp693
g16
(g22
g18
Ntp694
Rp695
(lp696
I85358
ag16
(g26
g18
Ntp697
Rp698
(lp699
I1351133743
aI42371054
abaS'ardrone_base_link'
p700
abaF41.0
aI3
aI15
aI-145
aI173
aI101542
aI510
aF0.03927396237850189
aF171.6728973388672
aF0.0
aF0.0860000029206276
aF-0.09700000286102295
aF1.746999979019165
aI1104
aF-29.292190551757812
aF-69.15479278564453
aF-0.0
aF0.04818226769566536
aF-0.0050536165945231915
aF0.9447692036628723
aI0
a(ta(ta(ta(ta(ta(ta(taF1166627200.0
abag16
(g17
g18
Ntp701
Rp702
(lp703
g16
(g22
g18
Ntp704
Rp705
(lp706
I85359
ag16
(g26
g18
Ntp707
Rp708
(lp709
I1351133743
aI122374169
abaS'ardrone_base_link'
p710
abaF41.0
aI3
aI27
aI-139
aI171
aI101545
aI510
aF0.041563939303159714
aF172.31283569335938
aF0.0
aF0.01899999938905239
aF-0.09300000220537186
aF1.4989999532699585
aI1101
aF-40.0179443359375
aF-67.67321014404297
aF-0.0
aF0.03834782913327217
aF-0.0008234312408603728
aF0.9482245445251465
aI0
a(ta(ta(ta(ta(ta(ta(taF1166692224.0
abag16
(g17
g18
Ntp711
Rp712
(lp713
g16
(g22
g18
Ntp714
Rp715
(lp716
I85360
ag16
(g26
g18
Ntp717
Rp718
(lp719
I1351133743
aI182388976
abaS'ardrone_base_link'
p720
abaF41.0
aI3
aI23
aI-139
aI171
aI101542
aI511
aF0.04481210932135582
aF172.91954040527344
aF0.0
aF0.029999999329447746
aF-0.15199999511241913
aF1.2510000467300415
aI1099
aF-49.827388763427734
aF-68.74394226074219
aF-0.0
aF0.032912321388721466
aF0.003603363176807761
aF0.9547338485717773
aI0
a(ta(ta(ta(ta(ta(ta(taF1166757248.0
abag16
(g17
g18
Ntp721
Rp722
(lp723
g16
(g22
g18
Ntp724
Rp725
(lp726
I85361
ag16
(g26
g18
Ntp727
Rp728
(lp729
I1351133743
aI242374858
abaS'ardrone_base_link'
p730
abaF41.0
aI3
aI28
aI-142
aI174
aI101539
aI511
aF0.048415958881378174
aF174.17173767089844
aF0.0
aF0.024000000208616257
aF-0.1809999942779541
aF1.0470000505447388
aI1097
aF-56.915985107421875
aF-66.49644470214844
aF-0.0
aF0.025065982714295387
aF0.0002714392030611634
aF0.9476931095123291
aI0
a(ta(ta(ta(ta(ta(ta(taF1166822400.0
abag16
(g17
g18
Ntp731
Rp732
(lp733
g16
(g22
g18
Ntp734
Rp735
(lp736
I85362
ag16
(g26
g18
Ntp737
Rp738
(lp739
I1351133743
aI322400235
abaS'ardrone_base_link'
p740
abaF41.0
aI3
aI17
aI-145
aI177
aI101552
aI511
aF0.052033681422472
aF175.0388641357422
aF0.0
aF0.01600000075995922
aF-0.12700000405311584
aF0.8259999752044678
aI1098
aF-63.34107971191406
aF-68.7451171875
aF-0.0
aF0.04494497925043106
aF0.001819942961446941
aF0.9573203921318054
aI0
a(ta(ta(ta(ta(ta(ta(taF1166887424.0
abag16
(g17
g18
Ntp741
Rp742
(lp743
g16
(g22
g18
Ntp744
Rp745
(lp746
I85363
ag16
(g26
g18
Ntp747
Rp748
(lp749
I1351133743
aI382356723
abaS'ardrone_base_link'
p750
abaF41.0
aI3
aI26
aI-142
aI176
aI101539
aI510
aF0.05197856202721596
aF175.26181030273438
aF0.0
aF0.026000000536441803
aF-0.07999999821186066
aF0.6370000243186951
aI1094
aF-54.20359802246094
aF-72.80438232421875
aF-0.0
aF0.05412386730313301
aF0.0014654049882665277
aF0.9522861242294312
aI0
a(ta(ta(ta(ta(ta(ta(taF1166952448.0
abag16
(g17
g18
Ntp751
Rp752
(lp753
g16
(g22
g18
Ntp754
Rp755
(lp756
I85364
ag16
(g26
g18
Ntp757
Rp758
(lp759
I1351133743
aI442409842
abaS'ardrone_base_link'
p760
abaF41.0
aI3
aI24
aI-140
aI174
aI101545
aI510
aF0.051607344299554825
aF175.15220642089844
aF0.0
aF0.04899999871850014
aF0.032999999821186066
aF0.4429999887943268
aI1091
aF-47.67937088012695
aF-74.07563781738281
aF-0.0
aF0.055190835148096085
aF-0.0013345382176339626
aF0.9435470700263977
aI0
a(ta(ta(ta(ta(ta(ta(taF1168114816.0
abag16
(g17
g18
Ntp761
Rp762
(lp763
g16
(g22
g18
Ntp764
Rp765
(lp766
I85365
ag16
(g26
g18
Ntp767
Rp768
(lp769
I1351133743
aI502364895
abaS'ardrone_base_link'
p770
abaF41.0
aI3
aI28
aI-138
aI168
aI101552
aI510
aF0.0522192120552063
aF175.072265625
aF0.0
aF0.041999999433755875
aF0.04100000113248825
aF0.21799999475479126
aI1088
aF-54.15292739868164
aF-76.36444854736328
aF-0.0
aF0.0505441278219223
aF0.00350666674785316
aF0.9451282024383545
aI0
a(ta(ta(ta(ta(ta(ta(taF1168179840.0
abag16
(g17
g18
Ntp771
Rp772
(lp773
g16
(g22
g18
Ntp774
Rp775
(lp776
I85366
ag16
(g26
g18
Ntp777
Rp778
(lp779
I1351133743
aI562372701
abaS'ardrone_base_link'
p780
abaF41.0
aI3
aI26
aI-136
aI174
aI101542
aI510
aF0.05172151327133179
aF175.3912353515625
aF0.0
aF0.06499999761581421
aF0.15800000727176666
aF0.00800000037997961
aI1084
aF-49.664527893066406
aF-73.99500274658203
aF-0.0
aF0.05900169163942337
aF-0.0035249823704361916
aF0.9503068327903748
aI0
a(ta(ta(ta(ta(ta(ta(taF1168244864.0
abag16
(g17
g18
Ntp781
Rp782
(lp783
g16
(g22
g18
Ntp784
Rp785
(lp786
I85367
ag16
(g26
g18
Ntp787
Rp788
(lp789
I1351133743
aI642354413
abaS'ardrone_base_link'
p790
abaF41.0
aI3
aI31
aI-141
aI171
aI101552
aI510
aF0.05177082121372223
aF175.22988891601562
aF0.0
aF0.11999999731779099
aF0.13899999856948853
aF-0.19900000095367432
aI1084
aF-57.56664276123047
aF-78.55817413330078
aF-0.0
aF0.051086463034152985
aF-0.0035528531298041344
aF0.9545832276344299
aI0
a(ta(ta(ta(ta(ta(ta(taF1168310016.0
abag16
(g17
g18
Ntp791
Rp792
(lp793
g16
(g22
g18
Ntp794
Rp795
(lp796
I85368
ag16
(g26
g18
Ntp797
Rp798
(lp799
I1351133743
aI702346423
abaS'ardrone_base_link'
p800
abaF41.0
aI3
aI27
aI-139
aI175
aI101526
aI510
aF0.05179179459810257
aF174.7300262451172
aF0.0
aF0.164000004529953
aF0.17599999904632568
aF-0.414000004529953
aI1083
aF-52.99284362792969
aF-82.14456176757812
aF-0.0
aF0.05417276546359062
aF-0.003074879292398691
aF0.9575445652008057
aI0
a(ta(ta(ta(ta(ta(ta(taF1168375168.0
abag16
(g17
g18
Ntp801
Rp802
(lp803
g16
(g22
g18
Ntp804
Rp805
(lp806
I85369
ag16
(g26
g18
Ntp807
Rp808
(lp809
I1351133743
aI762368883
abaS'ardrone_base_link'
p810
abaF41.0
aI3
aI27
aI-131
aI171
aI101542
aI510
aF0.05280492082238197
aF174.62962341308594
aF0.0
aF0.19200000166893005
aF0.17399999499320984
aF-0.6480000019073486
aI1083
aF-55.982154846191406
aF-85.1239013671875
aF-0.0
aF0.046968694776296616
aF-0.00397143978625536
aF0.9458250999450684
aI0
a(ta(ta(ta(ta(ta(ta(taF1168440192.0
abag16
(g17
g18
Ntp811
Rp812
(lp813
g16
(g22
g18
Ntp814
Rp815
(lp816
I85370
ag16
(g26
g18
Ntp817
Rp818
(lp819
I1351133743
aI822349438
abaS'ardrone_base_link'
p820
abaF41.0
aI3
aI25
aI-135
aI171
aI101529
aI510
aF0.0530310720205307
aF174.1976776123047
aF0.0
aF0.16500000655651093
aF0.20499999821186066
aF-0.8320000171661377
aI1082
aF-49.365684509277344
aF-90.19343566894531
aF-0.0
aF0.05852518230676651
aF-0.0007384972414001822
aF0.9370550513267517
aI0
a(ta(ta(ta(ta(ta(ta(taF1168505216.0
abag16
(g17
g18
Ntp821
Rp822
(lp823
g16
(g22
g18
Ntp824
Rp825
(lp826
I85371
ag16
(g26
g18
Ntp827
Rp828
(lp829
I1351133743
aI902347211
abaS'ardrone_base_link'
p830
abaF41.0
aI3
aI31
aI-141
aI173
aI101539
aI510
aF0.0528198666870594
aF173.712158203125
aF0.0
aF0.13300000131130219
aF0.2199999988079071
aF-1.034999966621399
aI1083
aF-45.789058685302734
aF-95.0900650024414
aF-0.0
aF0.06112974137067795
aF-0.006408817134797573
aF0.9300580620765686
aI0
a(ta(ta(ta(ta(ta(ta(taF1168570368.0
abag16
(g17
g18
Ntp831
Rp832
(lp833
g16
(g22
g18
Ntp834
Rp835
(lp836
I85372
ag16
(g26
g18
Ntp837
Rp838
(lp839
I1351133743
aI962375774
abaS'ardrone_base_link'
p840
abaF41.0
aI3
aI26
aI-140
aI176
aI101539
aI511
aF0.052424367517232895
aF173.80477905273438
aF0.0
aF0.13099999725818634
aF0.24500000476837158
aF-1.2109999656677246
aI1083
aF-44.25157165527344
aF-89.31989288330078
aF-0.0
aF0.06101711839437485
aF-0.004914203193038702
aF0.9303494095802307
aI0
a(ta(ta(ta(ta(ta(ta(taF1168635392.0
abag16
(g17
g18
Ntp841
Rp842
(lp843
g16
(g22
g18
Ntp844
Rp845
(lp846
I85373
ag16
(g26
g18
Ntp847
Rp848
(lp849
I1351133744
aI22339843
abaS'ardrone_base_link'
p850
abaF41.0
aI3
aI26
aI-138
aI174
aI101555
aI511
aF0.052265018224716187
aF173.17575073242188
aF0.0
aF0.18400000035762787
aF0.23199999332427979
aF-1.3919999599456787
aI1085
aF-41.51365661621094
aF-91.99353790283203
aF-0.0
aF0.056932464241981506
aF-0.006688374560326338
aF0.9380671977996826
aI0
a(ta(ta(ta(ta(ta(ta(taF1168700416.0
abag16
(g17
g18
Ntp851
Rp852
(lp853
g16
(g22
g18
Ntp854
Rp855
(lp856
I85374
ag16
(g26
g18
Ntp857
Rp858
(lp859
I1351133744
aI82341745
abaS'ardrone_base_link'
p860
abaF41.0
aI3
aI24
aI-142
aI176
aI101545
aI510
aF0.052202172577381134
aF172.89266967773438
aF0.0
aF0.20600000023841858
aF0.23800000548362732
aF-1.5709999799728394
aI1088
aF-41.208736419677734
aF-90.89769744873047
aF-0.0
aF0.05448642373085022
aF-0.0040293666534125805
aF0.9454388618469238
aI0
a(ta(ta(ta(ta(ta(ta(taF1168765568.0
abag16
(g17
g18
Ntp861
Rp862
(lp863
g16
(g22
g18
Ntp864
Rp865
(lp866
I85375
ag16
(g26
g18
Ntp867
Rp868
(lp869
I1351133744
aI162397037
abaS'ardrone_base_link'
p870
abaF41.0
aI3
aI21
aI-141
aI175
aI101539
aI510
aF0.052333664149045944
aF172.39390563964844
aF0.0
aF0.21799999475479126
aF0.22599999606609344
aF-1.7139999866485596
aI1089
aF-36.48697280883789
aF-99.6694107055664
aF-0.0
aF0.05259482190012932
aF-0.0061711836606264114
aF0.934679388999939
aI0
a(ta(ta(ta(ta(ta(ta(taF1168830592.0
abag16
(g17
g18
Ntp871
Rp872
(lp873
g16
(g22
g18
Ntp874
Rp875
(lp876
I85376
ag16
(g26
g18
Ntp877
Rp878
(lp879
I1351133744
aI222348256
abaS'ardrone_base_link'
p880
abaF41.0
aI3
aI22
aI-138
aI174
aI101539
aI510
aF0.05313536524772644
aF171.81979370117188
aF0.0
aF0.19300000369548798
aF0.2590000033378601
aF-1.8799999952316284
aI1088
aF-41.950992584228516
aF-103.09878540039062
aF-0.0
aF0.05339380353689194
aF-0.004246086813509464
aF0.9317477941513062
aI0
a(ta(ta(ta(ta(ta(ta(taF1168895744.0
abag16
(g17
g18
Ntp881
Rp882
(lp883
g16
(g22
g18
Ntp884
Rp885
(lp886
I85377
ag16
(g26
g18
Ntp887
Rp888
(lp889
I1351133744
aI282366431
abaS'ardrone_base_link'
p890
abaF41.0
aI3
aI24
aI-142
aI178
aI101539
aI510
aF0.05260773375630379
aF171.74496459960938
aF0.0
aF0.15000000596046448
aF0.31299999356269836
aF-2.0160000324249268
aI1088
aF-28.35826301574707
aF-102.92008209228516
aF-0.0
aF0.059324488043785095
aF-0.0004731402441393584
aF0.9439039826393127
aI0
a(ta(ta(ta(ta(ta(ta(taF1168960896.0
abag16
(g17
g18
Ntp891
Rp892
(lp893
g16
(g22
g18
Ntp894
Rp895
(lp896
I85378
ag16
(g26
g18
Ntp897
Rp898
(lp899
I1351133744
aI362343487
abaS'ardrone_base_link'
p900
abaF41.0
aI3
aI26
aI-140
aI174
aI101539
aI510
aF0.0524551086127758
aF171.13430786132812
aF0.0
aF0.210999995470047
aF0.4230000078678131
aF-2.1419999599456787
aI1090
aF-28.86620330810547
aF-103.8666763305664
aF-0.0
aF0.05642074719071388
aF-0.003464308101683855
aF0.9372779726982117
aI0
a(ta(ta(ta(ta(ta(ta(taF1169025920.0
abag16
(g17
g18
Ntp901
Rp902
(lp903
g16
(g22
g18
Ntp904
Rp905
(lp906
I85379
ag16
(g26
g18
Ntp907
Rp908
(lp909
I1351133744
aI422370431
abaS'ardrone_base_link'
p910
abaF41.0
aI3
aI26
aI-142
aI176
aI101523
aI510
aF0.051596760749816895
aF170.40133666992188
aF0.0
aF0.3070000112056732
aF0.4869999885559082
aF-2.255000114440918
aI1092
aF-22.51244354248047
aF-107.47752380371094
aF-0.0
aF0.06232740730047226
aF-0.005730957258492708
aF0.9393721222877502
aI0
a(ta(ta(ta(ta(ta(ta(taF1169090944.0
abag16
(g17
g18
Ntp911
Rp912
(lp913
g16
(g22
g18
Ntp914
Rp915
(lp916
I85380
ag16
(g26
g18
Ntp917
Rp918
(lp919
I1351133744
aI482411292
abaS'ardrone_base_link'
p920
abaF41.0
aI3
aI25
aI-139
aI175
aI101542
aI510
aF0.05111629515886307
aF170.0203399658203
aF0.0
aF0.4129999876022339
aF0.5090000033378601
aF-2.4000000953674316
aI1095
aF-19.86556053161621
aF-108.4638671875
aF-0.0
aF0.05994845926761627
aF-0.006619149353355169
aF0.9351136684417725
aI0
a(ta(ta(ta(ta(ta(ta(taF1170253568.0
abag16
(g17
g18
Ntp921
Rp922
(lp923
g16
(g22
g18
Ntp924
Rp925
(lp926
I85381
ag16
(g26
g18
Ntp927
Rp928
(lp929
I1351133744
aI542346415
abaS'ardrone_base_link'
p930
abaF41.0
aI3
aI25
aI-139
aI175
aI101539
aI510
aF0.050331421196460724
aF169.02572631835938
aF0.0
aF0.4339999854564667
aF0.5059999823570251
aF-2.496000051498413
aI1095
aF-1.64311945438385
aF-115.440185546875
aF-0.0
aF0.05987413227558136
aF-0.0026935087516903877
aF0.9310849905014038
aI0
a(ta(ta(ta(ta(ta(ta(taF1170318208.0
abag16
(g17
g18
Ntp931
Rp932
(lp933
g16
(g22
g18
Ntp934
Rp935
(lp936
I85382
ag16
(g26
g18
Ntp937
Rp938
(lp939
I1351133744
aI602354595
abaS'ardrone_base_link'
p940
abaF41.0
aI3
aI26
aI-140
aI174
aI101516
aI510
aF0.05090956762433052
aF168.6415557861328
aF0.0
aF0.39899998903274536
aF0.5130000114440918
aF-2.615000009536743
aI1099
aF-15.600485801696777
aF-121.98101806640625
aF-0.0
aF0.0447559654712677
aF-0.002085491782054305
aF0.9181652665138245
aI0
a(ta(ta(ta(ta(ta(ta(taF1170383360.0
abag16
(g17
g18
Ntp941
Rp942
(lp943
g16
(g22
g18
Ntp944
Rp945
(lp946
I85383
ag16
(g26
g18
Ntp947
Rp948
(lp949
I1351133744
aI682400612
abaS'ardrone_base_link'
p950
abaF41.0
aI3
aI28
aI-142
aI172
aI101536
aI510
aF0.05465812608599663
aF168.72328186035156
aF0.0
aF0.45899999141693115
aF0.5270000100135803
aF-2.686000108718872
aI1100
aF-0.4477960765361786
aF-126.4834213256836
aF-0.0
aF0.00867945421487093
aF0.0012471306836232543
aF0.9366454482078552
aI0
a(ta(ta(ta(ta(ta(ta(taF1170448768.0
abag16
(g17
g18
Ntp951
Rp952
(lp953
g16
(g22
g18
Ntp954
Rp955
(lp956
I85384
ag16
(g26
g18
Ntp957
Rp958
(lp959
I1351133744
aI742372690
abaS'ardrone_base_link'
p960
abaF40.0
aI3
aI29
aI-137
aI175
aI101539
aI510
aF0.060245249420404434
aF169.61331176757812
aF0.0
aF0.48100000619888306
aF0.5059999823570251
aF-2.818000078201294
aI1104
aF-16.564193725585938
aF-128.07846069335938
aF-0.0
aF0.03149021789431572
aF0.0045018624514341354
aF0.9347677230834961
aI0
a(ta(ta(ta(ta(ta(ta(taF1170513664.0
abag16
(g17
g18
Ntp961
Rp962
(lp963
g16
(g22
g18
Ntp964
Rp965
(lp966
I85385
ag16
(g26
g18
Ntp967
Rp968
(lp969
I1351133744
aI802375304
abaS'ardrone_base_link'
p970
abaF40.0
aI3
aI31
aI-137
aI173
aI101542
aI510
aF0.06081731989979744
aF169.42672729492188
aF0.0
aF0.5019999742507935
aF0.46700000762939453
aF-2.888000011444092
aI1105
aF6.79864501953125
aF-131.7082977294922
aF-0.0
aF0.05079849064350128
aF0.0036540727596729994
aF0.9309852719306946
aI0
a(ta(ta(ta(ta(ta(ta(taF1170578560.0
abag16
(g17
g18
Ntp971
Rp972
(lp973
g16
(g22
g18
Ntp974
Rp975
(lp976
I85386
ag16
(g26
g18
Ntp977
Rp978
(lp979
I1351133744
aI882372943
abaS'ardrone_base_link'
p980
abaF40.0
aI3
aI28
aI-140
aI172
aI101523
aI510
aF0.06100212037563324
aF168.74850463867188
aF0.0
aF0.47699999809265137
aF0.40299999713897705
aF-2.9820001125335693
aI1105
aF-3.9843969345092773
aF-139.02552795410156
aF-0.0
aF0.06134061887860298
aF0.0016553524183109403
aF0.9333963990211487
aI0
a(ta(ta(ta(ta(ta(ta(taF1170643968.0
abag16
(g17
g18
Ntp981
Rp982
(lp983
g16
(g22
g18
Ntp984
Rp985
(lp986
I85387
ag16
(g26
g18
Ntp987
Rp988
(lp989
I1351133744
aI942368831
abaS'ardrone_base_link'
p990
abaF40.0
aI3
aI22
aI-144
aI172
aI101545
aI510
aF0.06121885031461716
aF167.83294677734375
aF0.0
aF0.4090000092983246
aF0.3610000014305115
aF-3.0810000896453857
aI1109
aF-6.7669267654418945
aF-144.4037322998047
aF-0.0
aF0.04951338469982147
aF0.007745513692498207
aF0.9147505760192871
aI0
a(ta(ta(ta(ta(ta(ta(taF1170708736.0
abag16
(g17
g18
Ntp991
Rp992
(lp993
g16
(g22
g18
Ntp994
Rp995
(lp996
I85388
ag16
(g26
g18
Ntp997
Rp998
(lp999
I1351133745
aI2345954
abaS'ardrone_base_link'
p1000
abaF40.0
aI3
aI25
aI-137
aI173
aI101536
aI510
aF0.06140649691224098
aF167.11196899414062
aF0.0
aF0.328000009059906
aF0.3100000023841858
aF-3.2079999446868896
aI1107
aF-6.872292995452881
aF-146.44915771484375
aF-0.0
aF0.054772213101387024
aF0.0004929404240101576
aF0.9225792288780212
aI0
a(ta(ta(ta(ta(ta(ta(taF1170773888.0
abag16
(g17
g18
Ntp1001
Rp1002
(lp1003
g16
(g22
g18
Ntp1004
Rp1005
(lp1006
I85389
ag16
(g26
g18
Ntp1007
Rp1008
(lp1009
I1351133745
aI62349766
abaS'ardrone_base_link'
p1010
abaF40.0
aI3
aI29
aI-137
aI173
aI101545
aI510
aF0.06095937266945839
aF166.90113830566406
aF0.0
aF0.28200000524520874
aF0.23999999463558197
aF-3.303999900817871
aI1105
aF-4.804140090942383
aF-143.50042724609375
aF-0.0
aF0.05481478199362755
aF0.0017835099715739489
aF0.9434245228767395
aI0
a(ta(ta(ta(ta(ta(ta(taF1170838912.0
abag16
(g17
g18
Ntp1011
Rp1012
(lp1013
g16
(g22
g18
Ntp1014
Rp1015
(lp1016
I85390
ag16
(g26
g18
Ntp1017
Rp1018
(lp1019
I1351133745
aI142340794
abaS'ardrone_base_link'
p1020
abaF40.0
aI3
aI30
aI-138
aI174
aI101532
aI510
aF0.06111373007297516
aF166.31533813476562
aF0.0
aF0.2809999883174896
aF0.24199999868869781
aF-3.4170000553131104
aI1103
aF-9.806918144226074
aF-147.59039306640625
aF-0.0
aF0.05682564899325371
aF0.005188054870814085
aF0.9489745497703552
aI0
a(ta(ta(ta(ta(ta(ta(taF1170903936.0
abag16
(g17
g18
Ntp1021
Rp1022
(lp1023
g16
(g22
g18
Ntp1024
Rp1025
(lp1026
I85391
ag16
(g26
g18
Ntp1027
Rp1028
(lp1029
I1351133745
aI202378844
abaS'ardrone_base_link'
p1030
abaF40.0
aI3
aI32
aI-140
aI174
aI101532
aI510
aF0.06087074056267738
aF166.08554077148438
aF0.0
aF0.2919999957084656
aF0.18400000035762787
aF-3.506999969482422
aI1103
aF-7.10975980758667
aF-147.65440368652344
aF-0.0
aF0.04933082312345505
aF0.0007997070788405836
aF0.928466796875
aI0
a(ta(ta(ta(ta(ta(ta(taF1170968960.0
abag16
(g17
g18
Ntp1031
Rp1032
(lp1033
g16
(g22
g18
Ntp1034
Rp1035
(lp1036
I85392
ag16
(g26
g18
Ntp1037
Rp1038
(lp1039
I1351133745
aI262346388
abaS'ardrone_base_link'
p1040
abaF40.0
aI3
aI24
aI-132
aI174
aI101549
aI510
aF0.0610329806804657
aF165.29913330078125
aF0.0
aF0.2879999876022339
aF0.164000004529953
aF-3.6419999599456787
aI1105
aF-10.058902740478516
aF-153.85494995117188
aF-0.0
aF0.0595342181622982
aF0.004650248680263758
aF0.9307047128677368
aI0
a(ta(ta(ta(ta(ta(ta(taF1171034112.0
abag16
(g17
g18
Ntp1041
Rp1042
(lp1043
g16
(g22
g18
Ntp1044
Rp1045
(lp1046
I85393
ag16
(g26
g18
Ntp1047
Rp1048
(lp1049
I1351133745
aI322424425
abaS'ardrone_base_link'
p1050
abaF40.0
aI3
aI26
aI-134
aI170
aI101542
aI510
aF0.06078740954399109
aF164.70416259765625
aF0.0
aF0.28700000047683716
aF0.20999999344348907
aF-3.7290000915527344
aI1100
aF-8.395859718322754
aF-157.86004638671875
aF-0.0
aF0.0531281903386116
aF0.0022778939455747604
aF0.9299356937408447
aI0
a(ta(ta(ta(ta(ta(ta(taF1171099264.0
abag16
(g17
g18
Ntp1051
Rp1052
(lp1053
g16
(g22
g18
Ntp1054
Rp1055
(lp1056
I85394
ag16
(g26
g18
Ntp1057
Rp1058
(lp1059
I1351133745
aI402345393
abaS'ardrone_base_link'
p1060
abaF40.0
aI3
aI32
aI-138
aI170
aI101555
aI510
aF0.06053387373685837
aF164.0723114013672
aF0.0
aF0.3070000112056732
aF0.16300000250339508
aF-3.8369998931884766
aI1099
aF-4.799001216888428
aF-158.71743774414062
aF-0.0
aF0.05589477717876434
aF0.0003220794314984232
aF0.9319581985473633
aI0
a(ta(ta(ta(ta(ta(ta(taF1171164288.0
abag16
(g17
g18
Ntp1061
Rp1062
(lp1063
g16
(g22
g18
Ntp1064
Rp1065
(lp1066
I85395
ag16
(g26
g18
Ntp1067
Rp1068
(lp1069
I1351133745
aI462349928
abaS'ardrone_base_link'
p1070
abaF40.0
aI3
aI30
aI-140
aI172
aI101532
aI510
aF0.059784941375255585
aF163.21156311035156
aF0.0
aF0.13199999928474426
aF0.03700000047683716
aF-3.927999973297119
aI1097
aF4.120291709899902
aF-164.10958862304688
aF-0.0
aF0.05772174149751663
aF0.004640504717826843
aF0.9335921406745911
aI0
a(ta(ta(ta(ta(ta(ta(taF1172326528.0
abag16
(g17
g18
Ntp1071
Rp1072
(lp1073
g16
(g22
g18
Ntp1074
Rp1075
(lp1076
I85396
ag16
(g26
g18
Ntp1077
Rp1078
(lp1079
I1351133745
aI522952117
abaS'ardrone_base_link'
p1080
abaF40.0
aI3
aI25
aI-141
aI169
aI101539
aI510
aF0.059917863458395004
aF162.5907745361328
aF0.0
aF-0.04800000041723251
aF-0.1550000011920929
aF-4.0329999923706055
aI1097
aF-0.9394007921218872
aF-162.63414001464844
aF-0.0
aF0.049192532896995544
aF0.0044557820074260235
aF0.92918860912323
aI0
a(ta(ta(ta(ta(ta(ta(taF1172391680.0
abag16
(g17
g18
Ntp1081
Rp1082
(lp1083
g16
(g22
g18
Ntp1084
Rp1085
(lp1086
I85397
ag16
(g26
g18
Ntp1087
Rp1088
(lp1089
I1351133745
aI582384207
abaS'ardrone_base_link'
p1090
abaF40.0
aI3
aI30
aI-138
aI170
aI101542
aI510
aF0.05957825109362602
aF162.1585693359375
aF0.0
aF-0.12300000339746475
aF-0.18400000035762787
aF-4.0929999351501465
aI1096
aF-1.142592430114746
aF-159.50564575195312
aF-0.0
aF0.06147130951285362
aF0.00013374138507060707
aF0.9359498620033264
aI0
a(ta(ta(ta(ta(ta(ta(taF1172456704.0
abag16
(g17
g18
Ntp1091
Rp1092
(lp1093
g16
(g22
g18
Ntp1094
Rp1095
(lp1096
I85398
ag16
(g26
g18
Ntp1097
Rp1098
(lp1099
I1351133745
aI662357872
abaS'ardrone_base_link'
p1100
abaF40.0
aI3
aI34
aI-138
aI168
aI101549
aI510
aF0.06010564789175987
aF161.619384765625
aF0.0
aF-0.14000000059604645
aF-0.22599999606609344
aF-4.15500020980835
aI1097
aF-11.03278923034668
aF-155.81497192382812
aF-0.0
aF0.04925442114472389
aF0.004580734297633171
aF0.9364756941795349
aI0
a(ta(ta(ta(ta(ta(ta(taF1172521728.0
abag16
(g17
g18
Ntp1101
Rp1102
(lp1103
g16
(g22
g18
Ntp1104
Rp1105
(lp1106
I85399
ag16
(g26
g18
Ntp1107
Rp1108
(lp1109
I1351133745
aI722347181
abaS'ardrone_base_link'
p1110
abaF40.0
aI3
aI28
aI-138
aI164
aI101536
aI510
aF0.05991274118423462
aF161.6820068359375
aF0.0
aF-0.1599999964237213
aF-0.22300000488758087
aF-4.196000099182129
aI1098
aF-14.345869064331055
aF-148.9651336669922
aF-0.0
aF0.06003987044095993
aF0.004158905241638422
aF0.9336788654327393
aI0
a(ta(ta(ta(ta(ta(ta(taF1172586752.0
abag16
(g17
g18
Ntp1111
Rp1112
(lp1113
g16
(g22
g18
Ntp1114
Rp1115
(lp1116
I85400
ag16
(g26
g18
Ntp1117
Rp1118
(lp1119
I1351133745
aI782380310
abaS'ardrone_base_link'
p1120
abaF40.0
aI3
aI32
aI-140
aI170
aI101523
aI510
aF0.06064362823963165
aF161.0592498779297
aF0.0
aF-0.2199999988079071
aF0.2290000021457672
aF-4.228000164031982
aI1098
aF-31.456079483032227
aF-153.2295684814453
aF-0.0
aF0.05860914662480354
aF-0.0020069375168532133
aF0.9302758574485779
aI0
a(ta(ta(ta(ta(ta(ta(taF1172651904.0
abag16
(g17
g18
Ntp1121
Rp1122
(lp1123
g16
(g22
g18
Ntp1124
Rp1125
(lp1126
I85401
ag16
(g26
g18
Ntp1127
Rp1128
(lp1129
I1351133745
aI842344964
abaS'ardrone_base_link'
p1130
abaF40.0
aI3
aI37
aI-139
aI169
aI101545
aI510
aF0.06048135086894035
aF159.9717559814453
aF0.0
aF-0.2720000147819519
aF1.4880000352859497
aF-4.263999938964844
aI1098
aF-14.54931926727295
aF-156.59811401367188
aF-0.0
aF0.06011359766125679
aF0.004034276120364666
aF0.9331725239753723
aI0
a(ta(ta(ta(ta(ta(ta(taF1172717056.0
abag16
(g17
g18
Ntp1131
Rp1132
(lp1133
g16
(g22
g18
Ntp1134
Rp1135
(lp1136
I85402
ag16
(g26
g18
Ntp1137
Rp1138
(lp1139
I1351133745
aI922376363
abaS'ardrone_base_link'
p1140
abaF40.0
aI3
aI34
aI-144
aI174
aI101532
aI510
aF0.061557963490486145
aF159.31646728515625
aF0.0
aF-0.23199999332427979
aF2.9110000133514404
aF-4.313000202178955
aI1097
aF-9.243739128112793
aF-158.04379272460938
aF-0.0
aF0.05819735303521156
aF-0.00285111996345222
aF0.927478015422821
aI0
a(ta(ta(ta(ta(ta(ta(taF1172782080.0
abag16
(g17
g18
Ntp1141
Rp1142
(lp1143
g16
(g22
g18
Ntp1144
Rp1145
(lp1146
I85403
ag16
(g26
g18
Ntp1147
Rp1148
(lp1149
I1351133745
aI982356717
abaS'ardrone_base_link'
p1150
abaF40.0
aI3
aI29
aI-147
aI173
aI101516
aI510
aF0.06019696220755577
aF158.32090759277344
aF0.0
aF-0.21699999272823334
aF4.271999835968018
aF-4.354000091552734
aI1097
aF42.51856231689453
aF-148.54721069335938
aF-0.0
aF0.058524902909994125
aF0.0005516644450835884
aF0.9320862293243408
aI0
a(ta(ta(ta(ta(ta(ta(taF1172847104.0
abag16
(g17
g18
Ntp1151
Rp1152
(lp1153
g16
(g22
g18
Ntp1154
Rp1155
(lp1156
I85404
ag16
(g26
g18
Ntp1157
Rp1158
(lp1159
I1351133746
aI42388537
abaS'ardrone_base_link'
p1160
abaF40.0
aI3
aI33
aI-147
aI175
aI101545
aI510
aF0.05994647368788719
aF158.0410614013672
aF0.0
aF-0.29100000858306885
aF5.182000160217285
aF-4.392000198364258
aI1095
aF78.13838195800781
aF-137.4730224609375
aF-0.0
aF0.055370625108480453
aF0.0007377004367299378
aF0.9314531683921814
aI0
a(ta(ta(ta(ta(ta(ta(taF1172912384.0
abag16
(g17
g18
Ntp1161
Rp1162
(lp1163
g16
(g22
g18
Ntp1164
Rp1165
(lp1166
I85405
ag16
(g26
g18
Ntp1167
Rp1168
(lp1169
I1351133746
aI102368812
abaS'ardrone_base_link'
p1170
abaF40.0
aI3
aI37
aI-151
aI177
aI101529
aI510
aF0.05892932042479515
aF157.61160278320312
aF0.0
aF-0.36800000071525574
aF5.785999774932861
aF-4.440000057220459
aI1092
aF133.40696716308594
aF-125.6417007446289
aF-0.0
aF0.04976955056190491
aF0.0020201043225824833
aF0.9353459477424622
aI0
a(ta(ta(ta(ta(ta(ta(taF1172977280.0
abag16
(g17
g18
Ntp1171
Rp1172
(lp1173
g16
(g22
g18
Ntp1174
Rp1175
(lp1176
I85406
ag16
(g26
g18
Ntp1177
Rp1178
(lp1179
I1351133746
aI182345967
abaS'ardrone_base_link'
p1180
abaF40.0
aI3
aI36
aI-152
aI174
aI101536
aI510
aF0.059297118335962296
aF157.79403686523438
aF0.0
aF-0.4519999921321869
aF5.958000183105469
aF-4.51800012588501
aI1089
aF168.9554443359375
aF-114.64221954345703
aF-0.0
aF0.04806482046842575
aF0.004350070375949144
aF0.9453994631767273
aI0
a(ta(ta(ta(ta(ta(ta(taF1173042432.0
abag16
(g17
g18
Ntp1181
Rp1182
(lp1183
g16
(g22
g18
Ntp1184
Rp1185
(lp1186
I85407
ag16
(g26
g18
Ntp1187
Rp1188
(lp1189
I1351133746
aI242356370
abaS'ardrone_base_link'
p1190
abaF40.0
aI3
aI31
aI-151
aI181
aI101529
aI510
aF0.058126725256443024
aF157.70968627929688
aF0.0
aF-0.49399998784065247
aF6.047999858856201
aF-4.567999839782715
aI1088
aF247.94091796875
aF-101.14757537841797
aF-0.0
aF0.03380538523197174
aF-0.0003130823315586895
aF0.9407262802124023
aI0
a(ta(ta(ta(ta(ta(ta(taF1173107456.0
abag16
(g17
g18
Ntp1191
Rp1192
(lp1193
g16
(g22
g18
Ntp1194
Rp1195
(lp1196
I85408
ag16
(g26
g18
Ntp1197
Rp1198
(lp1199
I1351133746
aI302412156
abaS'ardrone_base_link'
p1200
abaF40.0
aI3
aI33
aI-153
aI177
aI101539
aI510
aF0.05730181932449341
aF157.8050994873047
aF0.0
aF-0.42899999022483826
aF5.997000217437744
aF-4.631999969482422
aI1086
aF309.0248718261719
aF-88.64707946777344
aF-0.0
aF0.03915724530816078
aF-0.0005208604270592332
aF0.9417744874954224
aI0
a(ta(ta(ta(ta(ta(ta(taF1173172480.0
abag16
(g17
g18
Ntp1201
Rp1202
(lp1203
g16
(g22
g18
Ntp1204
Rp1205
(lp1206
I85409
ag16
(g26
g18
Ntp1207
Rp1208
(lp1209
I1351133746
aI362375237
abaS'ardrone_base_link'
p1210
abaF40.0
aI3
aI31
aI-151
aI171
aI101536
aI510
aF0.055015478283166885
aF157.8275146484375
aF0.0
aF-0.32600000500679016
aF5.870999813079834
aF-4.645999908447266
aI1065
aF362.6512451171875
aF-72.0001220703125
aF-0.0
aF0.034194525331258774
aF-0.001416907412931323
aF0.9632270336151123
aI0
a(ta(ta(ta(ta(ta(ta(taF1173237504.0
abag16
(g17
g18
Ntp1211
Rp1212
(lp1213
g16
(g22
g18
Ntp1214
Rp1215
(lp1216
I85410
ag16
(g26
g18
Ntp1217
Rp1218
(lp1219
I1351133746
aI442400446
abaS'ardrone_base_link'
p1220
abaF40.0
aI3
aI30
aI-148
aI174
aI101529
aI510
aF0.0543258935213089
aF158.1555938720703
aF0.0
aF-0.2160000056028366
aF5.685999870300293
aF-4.631999969482422
aI1057
aF403.6703796386719
aF-65.46183776855469
aF-0.0
aF0.024879954755306244
aF0.002159006427973509
aF0.9909182190895081
aI0
a(ta(ta(ta(ta(ta(ta(taF1173302656.0
abag16
(g17
g18
Ntp1221
Rp1222
(lp1223
g16
(g22
g18
Ntp1224
Rp1225
(lp1226
I85411
ag16
(g26
g18
Ntp1227
Rp1228
(lp1229
I1351133746
aI502398855
abaS'ardrone_base_link'
p1230
abaF40.0
aI3
aI29
aI-153
aI173
aI101542
aI510
aF0.05312434583902359
aF158.8763885498047
aF0.0
aF-0.22100000083446503
aF5.521999835968018
aF-4.616000175476074
aI1050
aF444.95361328125
aF-54.52216339111328
aF-0.0
aF0.027286680415272713
aF-0.00377056747674942
aF0.995567262172699
aI0
a(ta(ta(ta(ta(ta(ta(taF1174464768.0
abag16
(g17
g18
Ntp1231
Rp1232
(lp1233
g16
(g22
g18
Ntp1234
Rp1235
(lp1236
I85412
ag16
(g26
g18
Ntp1237
Rp1238
(lp1239
I1351133746
aI562372460
abaS'ardrone_base_link'
p1240
abaF40.0
aI3
aI33
aI-151
aI173
aI101549
aI510
aF0.05206351354718208
aF160.16409301757812
aF0.0
aF-0.2750000059604645
aF5.21999979019165
aF-4.618000030517578
aI1063
aF488.39447021484375
aF-44.58333206176758
aF-0.0
aF0.011281246319413185
aF-0.003605292411521077
aF0.9820207953453064
aI0
a(ta(ta(ta(ta(ta(ta(taF1174530048.0
abag16
(g17
g18
Ntp1241
Rp1242
(lp1243
g16
(g22
g18
Ntp1244
Rp1245
(lp1246
I85413
ag16
(g26
g18
Ntp1247
Rp1248
(lp1249
I1351133746
aI642792369
abaS'ardrone_base_link'
p1250
abaF40.0
aI3
aI34
aI-154
aI172
aI101526
aI510
aF0.05097789317369461
aF161.4077911376953
aF0.0
aF-0.4390000104904175
aF4.9679999351501465
aF-4.598999977111816
aI1064
aF533.427490234375
aF-34.502315521240234
aF-0.0
aF0.015105696395039558
aF-0.0013074385933578014
aF0.9685558080673218
aI0
a(ta(ta(ta(ta(ta(ta(taF1174595072.0
abag16
(g17
g18
Ntp1251
Rp1252
(lp1253
g16
(g22
g18
Ntp1254
Rp1255
(lp1256
I85414
ag16
(g26
g18
Ntp1257
Rp1258
(lp1259
I1351133746
aI702353684
abaS'ardrone_base_link'
p1260
abaF40.0
aI3
aI33
aI-153
aI169
aI101532
aI510
aF0.04984862729907036
aF162.8302459716797
aF0.0
aF-0.5519999861717224
aF4.6579999923706055
aF-4.560999870300293
aI1070
aF560.9613037109375
aF-27.706153869628906
aF-0.0
aF0.015149231068789959
aF0.006729059386998415
aF0.9632604122161865
aI0
a(ta(ta(ta(ta(ta(ta(taF1174660096.0
abag16
(g17
g18
Ntp1261
Rp1262
(lp1263
g16
(g22
g18
Ntp1264
Rp1265
(lp1266
I85415
ag16
(g26
g18
Ntp1267
Rp1268
(lp1269
I1351133746
aI762433529
abaS'ardrone_base_link'
p1270
abaF40.0
aI3
aI30
aI-152
aI170
aI101532
aI510
aF0.048056669533252716
aF164.2620849609375
aF0.0
aF-0.6110000014305115
aF4.48199987411499
aF-4.486000061035156
aI1077
aF598.0048217773438
aF-18.45436668395996
aF-0.0
aF0.015771176666021347
aF-0.00012419330596458167
aF0.9467592239379883
aI0
a(ta(ta(ta(ta(ta(ta(taF1174725248.0
abag16
(g17
g18
Ntp1271
Rp1272
(lp1273
g16
(g22
g18
Ntp1274
Rp1275
(lp1276
I85416
ag16
(g26
g18
Ntp1277
Rp1278
(lp1279
I1351133746
aI822356568
abaS'ardrone_base_link'
p1280
abaF40.0
aI3
aI33
aI-153
aI171
aI101552
aI510
aF0.04782071337103844
aF167.225830078125
aF0.0
aF-0.574999988079071
aF4.388999938964844
aF-4.394000053405762
aI1088
aF586.9031982421875
aF-5.893420219421387
aF-0.0
aF0.012638844549655914
aF0.0017196456901729107
aF0.9358580708503723
aI0
a(ta(ta(ta(ta(ta(ta(taF1174790272.0
abag16
(g17
g18
Ntp1281
Rp1282
(lp1283
g16
(g22
g18
Ntp1284
Rp1285
(lp1286
I85417
ag16
(g26
g18
Ntp1287
Rp1288
(lp1289
I1351133746
aI882406640
abaS'ardrone_base_link'
p1290
abaF40.0
aI3
aI33
aI-151
aI167
aI101552
aI510
aF0.04758593067526817
aF170.1199951171875
aF0.0
aF-0.4569999873638153
aF4.328000068664551
aF-4.2779998779296875
aI1108
aF602.9677734375
aF4.017459869384766
aF-0.0
aF0.014147240668535233
aF-0.0060745771043002605
aF0.9248244166374207
aI0
a(ta(ta(ta(ta(ta(ta(taF1174855424.0
abag16
(g17
g18
Ntp1291
Rp1292
(lp1293
g16
(g22
g18
Ntp1294
Rp1295
(lp1296
I85418
ag16
(g26
g18
Ntp1297
Rp1298
(lp1299
I1351133746
aI962372341
abaS'ardrone_base_link'
p1300
abaF40.0
aI3
aI35
aI-147
aI169
aI101526
aI510
aF0.04623734578490257
aF172.29693603515625
aF0.0
aF-0.35899999737739563
aF4.4019999504089355
aF-4.10699987411499
aI1113
aF625.329345703125
aF2.2039756774902344
aF-0.0
aF0.02189723402261734
aF0.003788548056036234
aF0.9133452773094177
aI0
a(ta(ta(ta(ta(ta(ta(taF1174920448.0
abag16
(g17
g18
Ntp1301
Rp1302
(lp1303
g16
(g22
g18
Ntp1304
Rp1305
(lp1306
I85419
ag16
(g26
g18
Ntp1307
Rp1308
(lp1309
I1351133747
aI22361345
abaS'ardrone_base_link'
p1310
abaF40.0
aI3
aI39
aI-149
aI163
aI101552
aI510
aF0.0462951622903347
aF174.9663848876953
aF0.0
aF-0.3199999928474426
aF4.367000102996826
aF-3.9260001182556152
aI1121
aF625.8209838867188
aF3.72892427444458
aF-0.0
aF0.008245163597166538
aF0.0008756816387176514
aF0.9042991399765015
aI0
a(ta(ta(ta(ta(ta(ta(taF1174985472.0
abag16
(g17
g18
Ntp1311
Rp1312
(lp1313
g16
(g22
g18
Ntp1314
Rp1315
(lp1316
I85420
ag16
(g26
g18
Ntp1317
Rp1318
(lp1319
I1351133747
aI82405235
abaS'ardrone_base_link'
p1320
abaF40.0
aI3
aI33
aI-153
aI165
aI101558
aI510
aF0.045157451182603836
aF177.7071990966797
aF0.0
aF-0.3240000009536743
aF4.248000144958496
aF-3.7790000438690186
aI1127
aF658.0671997070312
aF9.15287971496582
aF-0.0
aF-0.004595320206135511
aF0.0050650998018682
aF0.9053762555122375
aI0
a(ta(ta(ta(ta(ta(ta(taF1175050752.0
abag16
(g17
g18
Ntp1321
Rp1322
(lp1323
g16
(g22
g18
Ntp1324
Rp1325
(lp1326
I85421
ag16
(g26
g18
Ntp1327
Rp1328
(lp1329
I1351133747
aI142374115
abaS'ardrone_base_link'
p1330
abaF40.0
aI3
aI33
aI-155
aI159
aI101532
aI510
aF0.043970029801130295
aF-179.31454467773438
aF0.0
aF-0.34299999475479126
aF4.216000080108643
aF-3.6050000190734863
aI1128
aF701.9862060546875
aF11.462851524353027
aF-0.0
aF0.010331918485462666
aF-0.0010709717171266675
aF0.912177324295044
aI0
a(ta(ta(ta(ta(ta(ta(taF1175115776.0
abasS'vz'
p1331
(lp1332
sS'al'
p1333
(lp1334
I712
aI707
aI707
aI709
aI712
aI717
aI719
aI721
aI726
aI729
aI731
aI734
aI735
aI735
aI736
aI733
aI733
aI732
aI732
aI733
aI734
aI731
aI731
aI732
aI733
aI732
aI732
aI732
aI731
aI730
aI727
aI724
aI720
aI720
aI724
aI731
aI742
aI754
aI770
aI788
aI807
aI827
aI852
aI874
aI899
aI924
aI946
aI968
aI989
aI1008
aI1025
aI1042
aI1057
aI1069
aI1079
aI1088
aI1095
aI1100
aI1104
aI1105
aI1108
aI1109
aI1109
aI1109
aI1109
aI1107
aI1105
aI1104
aI1101
aI1099
aI1097
aI1098
aI1094
aI1091
aI1088
aI1084
aI1084
aI1083
aI1083
aI1082
aI1083
aI1083
aI1085
aI1088
aI1089
aI1088
aI1088
aI1090
aI1092
aI1095
aI1095
aI1099
aI1100
aI1104
aI1105
aI1105
aI1109
aI1107
aI1105
aI1103
aI1103
aI1105
aI1100
aI1099
aI1097
aI1097
aI1096
aI1097
aI1098
aI1098
aI1098
aI1097
aI1097
aI1095
aI1092
aI1089
aI1088
aI1086
aI1065
aI1057
aI1050
aI1063
aI1064
aI1070
aI1077
aI1088
aI1108
aI1113
aI1121
aI1127
aI1128
asa(dp1335
S'tw'
p1336
(lp1337
g16
(cgeometry_msgs.msg._Twist
Twist
p1338
g18
Ntp1339
Rp1340
(lp1341
g16
(cgeometry_msgs.msg._Vector3
Vector3
p1342
g18
Ntp1343
Rp1344
(lp1345
F0.0
aF0.0
aF0.0
abag16
(g1342
g18
Ntp1346
Rp1347
(lp1348
F0.0
aF0.0
aF0.0
ababag1340
ag1340
ag1340
ag1340
ag1340
ag1340
ag1340
ag1340
ag1340
ag1340
ag1340
ag1340
ag1340
ag1340
ag1340
ag1340
ag1340
ag1340
ag1340
ag1340
ag1340
ag1340
ag1340
ag1340
ag1340
ag1340
ag1340
ag1340
ag1340
ag1340
ag1340
ag1340
ag1340
ag1340
ag1340
ag1340
ag1340
ag1340
ag1340
ag1340
ag1340
ag1340
ag1340
ag1340
ag1340
ag1340
ag1340
ag1340
ag1340
ag1340
ag1340
ag1340
ag1340
ag1340
ag1340
ag1340
ag1340
ag1340
ag1340
ag1340
ag1340
ag1340
ag1340
ag1340
ag1340
ag1340
ag1340
ag1340
ag1340
ag1340
ag1340
ag1340
ag1340
ag1340
ag1340
ag1340
ag1340
ag1340
ag1340
ag1340
ag1340
ag1340
ag1340
ag1340
ag1340
ag1340
ag1340
ag1340
ag1340
ag1340
ag1340
ag1340
ag1340
ag1340
ag1340
ag1340
asg4
(lp1349
F8.067615032196045
aF8.134068012237549
aF8.200844049453735
aF8.267564058303833
aF8.334738969802856
aF8.400890111923218
aF8.467486143112183
aF8.53408408164978
aF8.600763082504272
aF8.66759204864502
aF8.734218120574951
aF8.80119013786316
aF8.867573022842407
aF8.934221982955933
aF9.000720024108887
aF9.067612171173096
aF9.13435697555542
aF9.200808048248291
aF9.26750898361206
aF9.333974123001099
aF9.400731086730957
aF9.467602014541626
aF9.534276962280273
aF9.600872993469238
aF9.667596101760864
aF9.734344959259033
aF9.800889015197754
aF9.86774206161499
aF9.934009075164795
aF10.00101113319397
aF10.067734003067017
aF10.134216070175171
aF10.20091199874878
aF10.267558097839355
aF10.33421802520752
aF10.400897026062012
aF10.46741509437561
aF10.53414797782898
aF10.600749969482422
aF10.667473077774048
aF10.734121084213257
aF10.800873041152954
aF10.867553949356079
aF10.934200048446655
aF11.00095796585083
aF11.067577123641968
aF11.134207963943481
aF11.20083498954773
aF11.267552137374878
aF11.334107160568237
aF11.400676012039185
aF11.467501163482666
aF11.534146070480347
aF11.600788116455078
aF11.667436122894287
aF11.734163045883179
aF11.800765037536621
aF11.867373943328857
aF11.934160947799683
aF12.00069808959961
aF12.067515134811401
aF12.13443112373352
aF12.200744152069092
aF12.267572164535522
aF12.334203004837036
aF12.400700092315674
aF12.467443943023682
aF12.534218072891235
aF12.600876092910767
aF12.66745400428772
aF12.734151124954224
aF12.800956964492798
aF12.867424964904785
aF12.934160947799683
aF13.000941038131714
aF13.067434072494507
aF13.13419795036316
aF13.200915098190308
aF13.267563104629517
aF13.334220170974731
aF13.400885105133057
aF13.467560052871704
aF13.53411602973938
aF13.600926160812378
aF13.667670011520386
aF13.734178066253662
aF13.800860166549683
aF13.867541074752808
aF13.934070110321045
aF14.000842094421387
aF14.067561149597168
aF14.13407301902771
aF14.200715065002441
aF14.267527103424072
aF14.334191083908081
aF14.400866985321045
aF14.467549085617065
asa.